ARM GAS  /tmp/ccskRnOE.s 			page 1


   1              		.cpu cortex-m3
   2              		.arch armv7-m
   3              		.fpu softvfp
   4              		.eabi_attribute 20, 1
   5              		.eabi_attribute 21, 1
   6              		.eabi_attribute 23, 3
   7              		.eabi_attribute 24, 1
   8              		.eabi_attribute 25, 1
   9              		.eabi_attribute 26, 1
  10              		.eabi_attribute 30, 1
  11              		.eabi_attribute 34, 1
  12              		.eabi_attribute 18, 4
  13              		.file	"led_panels_driver.c"
  14              		.text
  15              	.Ltext0:
  16              		.cfi_sections	.debug_frame
  17              		.file 1 "External/led_panels_driver/Src/led_panels_driver.c"
  18              		.section	.text.convert_color_to_pwm_data,"ax",%progbits
  19              		.align	1
  20              		.syntax unified
  21              		.thumb
  22              		.thumb_func
  24              	convert_color_to_pwm_data:
  25              	.LVL0:
  26              	.LFB0:
   1:External/led_panels_driver/Src/led_panels_driver.c **** #include "led_panels_driver.h"
   2:External/led_panels_driver/Src/led_panels_driver.c **** #include "led_panels_defs.h"
   3:External/led_panels_driver/Src/led_panels_driver.c **** #include "led_panels_io.h"
   4:External/led_panels_driver/Src/led_panels_driver.c **** #include <stddef.h>
   5:External/led_panels_driver/Src/led_panels_driver.c **** #include <stdlib.h>
   6:External/led_panels_driver/Src/led_panels_driver.c **** #include <memory.h>
   7:External/led_panels_driver/Src/led_panels_driver.c **** #include <stdbool.h>
   8:External/led_panels_driver/Src/led_panels_driver.c **** #include <math.h>
   9:External/led_panels_driver/Src/led_panels_driver.c **** 
  10:External/led_panels_driver/Src/led_panels_driver.c **** // Defines -------------------------------------------------------------------
  11:External/led_panels_driver/Src/led_panels_driver.c **** 
  12:External/led_panels_driver/Src/led_panels_driver.c **** #define PWM_PIXEL_SIZE 24
  13:External/led_panels_driver/Src/led_panels_driver.c **** #define GET_PANEL_SIZE(index, sizes) \
  14:External/led_panels_driver/Src/led_panels_driver.c ****   (uint16_t)(sizes[index])
  15:External/led_panels_driver/Src/led_panels_driver.c **** 
  16:External/led_panels_driver/Src/led_panels_driver.c **** // Static variables ----------------------------------------------------------
  17:External/led_panels_driver/Src/led_panels_driver.c **** 
  18:External/led_panels_driver/Src/led_panels_driver.c **** // Static functions ----------------------------------------------------------
  19:External/led_panels_driver/Src/led_panels_driver.c **** 
  20:External/led_panels_driver/Src/led_panels_driver.c **** static void convert_color_to_pwm_data(
  21:External/led_panels_driver/Src/led_panels_driver.c ****   uint8_t *const pwm_data,
  22:External/led_panels_driver/Src/led_panels_driver.c ****   const uint8_t *const color
  23:External/led_panels_driver/Src/led_panels_driver.c **** )
  24:External/led_panels_driver/Src/led_panels_driver.c **** {
  27              		.loc 1 24 1 view -0
  28              		.cfi_startproc
  29              		@ args = 0, pretend = 0, frame = 0
  30              		@ frame_needed = 0, uses_anonymous_args = 0
  31              		@ link register save eliminated.
  25:External/led_panels_driver/Src/led_panels_driver.c ****   for (uint8_t i = 0; i < 8; i++)
  32              		.loc 1 25 3 view .LVU1
  33              	.LBB6:
ARM GAS  /tmp/ccskRnOE.s 			page 2


  34              		.loc 1 25 8 view .LVU2
  35              		.loc 1 25 16 is_stmt 0 view .LVU3
  36 0000 0023     		movs	r3, #0
  37              		.loc 1 25 3 view .LVU4
  38 0002 03E0     		b	.L2
  39              	.LVL1:
  40              	.L5:
  26:External/led_panels_driver/Src/led_panels_driver.c ****   {
  27:External/led_panels_driver/Src/led_panels_driver.c ****     *(pwm_data + i) = (bool)(*color & (1 << (7 - i))) ? 
  41              		.loc 1 27 21 discriminator 2 view .LVU5
  42 0004 1E22     		movs	r2, #30
  43              	.L3:
  44              		.loc 1 27 21 discriminator 4 view .LVU6
  45 0006 C254     		strb	r2, [r0, r3]
  25:External/led_panels_driver/Src/led_panels_driver.c ****   for (uint8_t i = 0; i < 8; i++)
  46              		.loc 1 25 31 is_stmt 1 discriminator 2 view .LVU7
  47 0008 0133     		adds	r3, r3, #1
  48              	.LVL2:
  25:External/led_panels_driver/Src/led_panels_driver.c ****   for (uint8_t i = 0; i < 8; i++)
  49              		.loc 1 25 31 is_stmt 0 discriminator 2 view .LVU8
  50 000a DBB2     		uxtb	r3, r3
  51              	.LVL3:
  52              	.L2:
  25:External/led_panels_driver/Src/led_panels_driver.c ****   for (uint8_t i = 0; i < 8; i++)
  53              		.loc 1 25 25 is_stmt 1 discriminator 1 view .LVU9
  54 000c 072B     		cmp	r3, #7
  55 000e 09D8     		bhi	.L6
  56              		.loc 1 27 5 view .LVU10
  57              		.loc 1 27 30 is_stmt 0 view .LVU11
  58 0010 0A78     		ldrb	r2, [r1]	@ zero_extendqisi2
  59              		.loc 1 27 48 view .LVU12
  60 0012 C3F1070C 		rsb	ip, r3, #7
  61              		.loc 1 27 23 view .LVU13
  62 0016 42FA0CF2 		asr	r2, r2, ip
  63              		.loc 1 27 21 view .LVU14
  64 001a 12F0010F 		tst	r2, #1
  65 001e F1D0     		beq	.L5
  66              		.loc 1 27 21 discriminator 1 view .LVU15
  67 0020 3C22     		movs	r2, #60
  68 0022 F0E7     		b	.L3
  69              	.L6:
  70              		.loc 1 27 21 discriminator 1 view .LVU16
  71              	.LBE6:
  28:External/led_panels_driver/Src/led_panels_driver.c ****       LED_PANELS_1_VALUE : LED_PANELS_0_VALUE;
  29:External/led_panels_driver/Src/led_panels_driver.c ****   }
  30:External/led_panels_driver/Src/led_panels_driver.c **** }
  72              		.loc 1 30 1 view .LVU17
  73 0024 7047     		bx	lr
  74              		.cfi_endproc
  75              	.LFE0:
  77              		.section	.text.convert_pwm_data_to_color,"ax",%progbits
  78              		.align	1
  79              		.syntax unified
  80              		.thumb
  81              		.thumb_func
  83              	convert_pwm_data_to_color:
  84              	.LVL4:
ARM GAS  /tmp/ccskRnOE.s 			page 3


  85              	.LFB1:
  31:External/led_panels_driver/Src/led_panels_driver.c **** 
  32:External/led_panels_driver/Src/led_panels_driver.c **** static void convert_pwm_data_to_color(
  33:External/led_panels_driver/Src/led_panels_driver.c ****   const uint8_t *const pwm_data,
  34:External/led_panels_driver/Src/led_panels_driver.c ****   uint8_t *const color
  35:External/led_panels_driver/Src/led_panels_driver.c **** )
  36:External/led_panels_driver/Src/led_panels_driver.c **** {
  86              		.loc 1 36 1 is_stmt 1 view -0
  87              		.cfi_startproc
  88              		@ args = 0, pretend = 0, frame = 0
  89              		@ frame_needed = 0, uses_anonymous_args = 0
  37:External/led_panels_driver/Src/led_panels_driver.c ****   for (uint8_t i = 0; i < 8; i++)
  90              		.loc 1 37 3 view .LVU19
  91              	.LBB7:
  92              		.loc 1 37 8 view .LVU20
  93              		.loc 1 37 16 is_stmt 0 view .LVU21
  94 0000 0023     		movs	r3, #0
  95              	.LVL5:
  96              		.loc 1 37 25 is_stmt 1 discriminator 1 view .LVU22
  97 0002 072B     		cmp	r3, #7
  98 0004 1AD8     		bhi	.L15
  99              	.LBE7:
  36:External/led_panels_driver/Src/led_panels_driver.c ****   for (uint8_t i = 0; i < 8; i++)
 100              		.loc 1 36 1 is_stmt 0 view .LVU23
 101 0006 00B5     		push	{lr}
 102              	.LCFI0:
 103              		.cfi_def_cfa_offset 4
 104              		.cfi_offset 14, -4
 105 0008 0AE0     		b	.L10
 106              	.L17:
 107              	.LBB8:
  38:External/led_panels_driver/Src/led_panels_driver.c ****   {
  39:External/led_panels_driver/Src/led_panels_driver.c ****     *color |= (
  40:External/led_panels_driver/Src/led_panels_driver.c ****       *(pwm_data + (7 - i)) == LED_PANELS_1_VALUE ? 1U : 0U
 108              		.loc 1 40 56 discriminator 1 view .LVU24
 109 000a 4FF0010C 		mov	ip, #1
 110              	.L9:
  41:External/led_panels_driver/Src/led_panels_driver.c ****     ) << i;
 111              		.loc 1 41 7 view .LVU25
 112 000e 0CFA0EFC 		lsl	ip, ip, lr
  39:External/led_panels_driver/Src/led_panels_driver.c ****       *(pwm_data + (7 - i)) == LED_PANELS_1_VALUE ? 1U : 0U
 113              		.loc 1 39 12 view .LVU26
 114 0012 42EA0C02 		orr	r2, r2, ip
 115 0016 0A70     		strb	r2, [r1]
  37:External/led_panels_driver/Src/led_panels_driver.c ****   {
 116              		.loc 1 37 31 is_stmt 1 discriminator 2 view .LVU27
 117 0018 0133     		adds	r3, r3, #1
 118              	.LVL6:
  37:External/led_panels_driver/Src/led_panels_driver.c ****   {
 119              		.loc 1 37 31 is_stmt 0 discriminator 2 view .LVU28
 120 001a DBB2     		uxtb	r3, r3
 121              	.LVL7:
  37:External/led_panels_driver/Src/led_panels_driver.c ****   {
 122              		.loc 1 37 25 is_stmt 1 discriminator 1 view .LVU29
 123 001c 072B     		cmp	r3, #7
 124 001e 0BD8     		bhi	.L16
 125              	.L10:
ARM GAS  /tmp/ccskRnOE.s 			page 4


  39:External/led_panels_driver/Src/led_panels_driver.c ****       *(pwm_data + (7 - i)) == LED_PANELS_1_VALUE ? 1U : 0U
 126              		.loc 1 39 5 view .LVU30
 127 0020 0A78     		ldrb	r2, [r1]	@ zero_extendqisi2
  40:External/led_panels_driver/Src/led_panels_driver.c ****     ) << i;
 128              		.loc 1 40 23 is_stmt 0 view .LVU31
 129 0022 9E46     		mov	lr, r3
 130 0024 C3F1070C 		rsb	ip, r3, #7
  40:External/led_panels_driver/Src/led_panels_driver.c ****     ) << i;
 131              		.loc 1 40 7 view .LVU32
 132 0028 10F80CC0 		ldrb	ip, [r0, ip]	@ zero_extendqisi2
  40:External/led_panels_driver/Src/led_panels_driver.c ****     ) << i;
 133              		.loc 1 40 56 view .LVU33
 134 002c BCF13C0F 		cmp	ip, #60
 135 0030 EBD0     		beq	.L17
  40:External/led_panels_driver/Src/led_panels_driver.c ****     ) << i;
 136              		.loc 1 40 56 discriminator 2 view .LVU34
 137 0032 4FF0000C 		mov	ip, #0
 138 0036 EAE7     		b	.L9
 139              	.L16:
  40:External/led_panels_driver/Src/led_panels_driver.c ****     ) << i;
 140              		.loc 1 40 56 discriminator 2 view .LVU35
 141              	.LBE8:
  42:External/led_panels_driver/Src/led_panels_driver.c ****   }
  43:External/led_panels_driver/Src/led_panels_driver.c **** }
 142              		.loc 1 43 1 view .LVU36
 143 0038 5DF804FB 		ldr	pc, [sp], #4
 144              	.L15:
 145              	.LCFI1:
 146              		.cfi_def_cfa_offset 0
 147              		.cfi_restore 14
 148              		.loc 1 43 1 view .LVU37
 149 003c 7047     		bx	lr
 150              		.cfi_endproc
 151              	.LFE1:
 153              		.section	.text.convert_pwm_data_to_pixel,"ax",%progbits
 154              		.align	1
 155              		.syntax unified
 156              		.thumb
 157              		.thumb_func
 159              	convert_pwm_data_to_pixel:
 160              	.LVL8:
 161              	.LFB3:
  44:External/led_panels_driver/Src/led_panels_driver.c **** 
  45:External/led_panels_driver/Src/led_panels_driver.c **** __attribute__((always_inline))
  46:External/led_panels_driver/Src/led_panels_driver.c **** inline static uint16_t get_side_size(uint16_t size)
  47:External/led_panels_driver/Src/led_panels_driver.c **** {
  48:External/led_panels_driver/Src/led_panels_driver.c ****   static const uint8_t sides_sizes[] = { 8U, 16U };
  49:External/led_panels_driver/Src/led_panels_driver.c ****   return sides_sizes[size >> 8]; // size / 256
  50:External/led_panels_driver/Src/led_panels_driver.c **** }
  51:External/led_panels_driver/Src/led_panels_driver.c **** 
  52:External/led_panels_driver/Src/led_panels_driver.c **** static void convert_pwm_data_to_pixel(
  53:External/led_panels_driver/Src/led_panels_driver.c ****   uint8_t *const pwm_data,
  54:External/led_panels_driver/Src/led_panels_driver.c ****   led_panels_color *const pixel
  55:External/led_panels_driver/Src/led_panels_driver.c **** )
  56:External/led_panels_driver/Src/led_panels_driver.c **** {
 162              		.loc 1 56 1 is_stmt 1 view -0
 163              		.cfi_startproc
ARM GAS  /tmp/ccskRnOE.s 			page 5


 164              		@ args = 0, pretend = 0, frame = 0
 165              		@ frame_needed = 0, uses_anonymous_args = 0
 166              		.loc 1 56 1 is_stmt 0 view .LVU39
 167 0000 38B5     		push	{r3, r4, r5, lr}
 168              	.LCFI2:
 169              		.cfi_def_cfa_offset 16
 170              		.cfi_offset 3, -16
 171              		.cfi_offset 4, -12
 172              		.cfi_offset 5, -8
 173              		.cfi_offset 14, -4
 174 0002 0546     		mov	r5, r0
 175 0004 0C46     		mov	r4, r1
  57:External/led_panels_driver/Src/led_panels_driver.c ****   convert_pwm_data_to_color(pwm_data, &pixel->green);
 176              		.loc 1 57 3 is_stmt 1 view .LVU40
 177 0006 0131     		adds	r1, r1, #1
 178              	.LVL9:
 179              		.loc 1 57 3 is_stmt 0 view .LVU41
 180 0008 FFF7FEFF 		bl	convert_pwm_data_to_color
 181              	.LVL10:
  58:External/led_panels_driver/Src/led_panels_driver.c ****   convert_pwm_data_to_color(pwm_data + 8, &pixel->red);
 182              		.loc 1 58 3 is_stmt 1 view .LVU42
 183 000c 2146     		mov	r1, r4
 184 000e 05F10800 		add	r0, r5, #8
 185 0012 FFF7FEFF 		bl	convert_pwm_data_to_color
 186              	.LVL11:
  59:External/led_panels_driver/Src/led_panels_driver.c ****   convert_pwm_data_to_color(pwm_data + 16, &pixel->blue);
 187              		.loc 1 59 3 view .LVU43
 188 0016 A11C     		adds	r1, r4, #2
 189 0018 05F11000 		add	r0, r5, #16
 190 001c FFF7FEFF 		bl	convert_pwm_data_to_color
 191              	.LVL12:
  60:External/led_panels_driver/Src/led_panels_driver.c **** }
 192              		.loc 1 60 1 is_stmt 0 view .LVU44
 193 0020 38BD     		pop	{r3, r4, r5, pc}
 194              		.loc 1 60 1 view .LVU45
 195              		.cfi_endproc
 196              	.LFE3:
 198              		.section	.text.convert_pixel_to_pwm_data,"ax",%progbits
 199              		.align	1
 200              		.syntax unified
 201              		.thumb
 202              		.thumb_func
 204              	convert_pixel_to_pwm_data:
 205              	.LVL13:
 206              	.LFB4:
  61:External/led_panels_driver/Src/led_panels_driver.c **** 
  62:External/led_panels_driver/Src/led_panels_driver.c **** static void convert_pixel_to_pwm_data(
  63:External/led_panels_driver/Src/led_panels_driver.c ****   uint8_t *const pwm_data,
  64:External/led_panels_driver/Src/led_panels_driver.c ****   led_panels_color *const pixel
  65:External/led_panels_driver/Src/led_panels_driver.c **** )
  66:External/led_panels_driver/Src/led_panels_driver.c **** {
 207              		.loc 1 66 1 is_stmt 1 view -0
 208              		.cfi_startproc
 209              		@ args = 0, pretend = 0, frame = 0
 210              		@ frame_needed = 0, uses_anonymous_args = 0
 211              		.loc 1 66 1 is_stmt 0 view .LVU47
 212 0000 38B5     		push	{r3, r4, r5, lr}
ARM GAS  /tmp/ccskRnOE.s 			page 6


 213              	.LCFI3:
 214              		.cfi_def_cfa_offset 16
 215              		.cfi_offset 3, -16
 216              		.cfi_offset 4, -12
 217              		.cfi_offset 5, -8
 218              		.cfi_offset 14, -4
 219 0002 0546     		mov	r5, r0
 220 0004 0C46     		mov	r4, r1
  67:External/led_panels_driver/Src/led_panels_driver.c ****   convert_color_to_pwm_data(pwm_data, &pixel->green);
 221              		.loc 1 67 3 is_stmt 1 view .LVU48
 222 0006 0131     		adds	r1, r1, #1
 223              	.LVL14:
 224              		.loc 1 67 3 is_stmt 0 view .LVU49
 225 0008 FFF7FEFF 		bl	convert_color_to_pwm_data
 226              	.LVL15:
  68:External/led_panels_driver/Src/led_panels_driver.c ****   convert_color_to_pwm_data(pwm_data + 8, &pixel->red);
 227              		.loc 1 68 3 is_stmt 1 view .LVU50
 228 000c 2146     		mov	r1, r4
 229 000e 05F10800 		add	r0, r5, #8
 230 0012 FFF7FEFF 		bl	convert_color_to_pwm_data
 231              	.LVL16:
  69:External/led_panels_driver/Src/led_panels_driver.c ****   convert_color_to_pwm_data(pwm_data + 16, &pixel->blue);
 232              		.loc 1 69 3 view .LVU51
 233 0016 A11C     		adds	r1, r4, #2
 234 0018 05F11000 		add	r0, r5, #16
 235 001c FFF7FEFF 		bl	convert_color_to_pwm_data
 236              	.LVL17:
  70:External/led_panels_driver/Src/led_panels_driver.c **** }
 237              		.loc 1 70 1 is_stmt 0 view .LVU52
 238 0020 38BD     		pop	{r3, r4, r5, pc}
 239              		.loc 1 70 1 view .LVU53
 240              		.cfi_endproc
 241              	.LFE4:
 243              		.section	.text.get_panel_offset,"ax",%progbits
 244              		.align	1
 245              		.syntax unified
 246              		.thumb
 247              		.thumb_func
 249              	get_panel_offset:
 250              	.LVL18:
 251              	.LFB5:
  71:External/led_panels_driver/Src/led_panels_driver.c **** 
  72:External/led_panels_driver/Src/led_panels_driver.c **** static uint16_t get_panel_offset(
  73:External/led_panels_driver/Src/led_panels_driver.c ****   uint8_t panel_index,
  74:External/led_panels_driver/Src/led_panels_driver.c ****   led_panels_size *panels_sizes
  75:External/led_panels_driver/Src/led_panels_driver.c **** )
  76:External/led_panels_driver/Src/led_panels_driver.c **** {
 252              		.loc 1 76 1 is_stmt 1 view -0
 253              		.cfi_startproc
 254              		@ args = 0, pretend = 0, frame = 0
 255              		@ frame_needed = 0, uses_anonymous_args = 0
 256              		@ link register save eliminated.
  77:External/led_panels_driver/Src/led_panels_driver.c ****   uint16_t pixels_offset = 0U;
 257              		.loc 1 77 3 view .LVU55
  78:External/led_panels_driver/Src/led_panels_driver.c **** 
  79:External/led_panels_driver/Src/led_panels_driver.c ****   uint8_t i = 0;
 258              		.loc 1 79 3 view .LVU56
ARM GAS  /tmp/ccskRnOE.s 			page 7


  80:External/led_panels_driver/Src/led_panels_driver.c ****   for (; i < panel_index; i++)
 259              		.loc 1 80 3 view .LVU57
  79:External/led_panels_driver/Src/led_panels_driver.c ****   for (; i < panel_index; i++)
 260              		.loc 1 79 11 is_stmt 0 view .LVU58
 261 0000 0023     		movs	r3, #0
  77:External/led_panels_driver/Src/led_panels_driver.c **** 
 262              		.loc 1 77 12 view .LVU59
 263 0002 1A46     		mov	r2, r3
 264              		.loc 1 80 3 view .LVU60
 265 0004 05E0     		b	.L23
 266              	.LVL19:
 267              	.L24:
  81:External/led_panels_driver/Src/led_panels_driver.c ****   pixels_offset += GET_PANEL_SIZE(i, panels_sizes);
 268              		.loc 1 81 3 is_stmt 1 view .LVU61
 269              		.loc 1 81 20 is_stmt 0 view .LVU62
 270 0006 31F813C0 		ldrh	ip, [r1, r3, lsl #1]
 271              		.loc 1 81 17 view .LVU63
 272 000a 6244     		add	r2, r2, ip
 273              	.LVL20:
 274              		.loc 1 81 17 view .LVU64
 275 000c 92B2     		uxth	r2, r2
 276              	.LVL21:
  80:External/led_panels_driver/Src/led_panels_driver.c ****   pixels_offset += GET_PANEL_SIZE(i, panels_sizes);
 277              		.loc 1 80 28 is_stmt 1 discriminator 2 view .LVU65
 278 000e 0133     		adds	r3, r3, #1
 279              	.LVL22:
  80:External/led_panels_driver/Src/led_panels_driver.c ****   pixels_offset += GET_PANEL_SIZE(i, panels_sizes);
 280              		.loc 1 80 28 is_stmt 0 discriminator 2 view .LVU66
 281 0010 DBB2     		uxtb	r3, r3
 282              	.LVL23:
 283              	.L23:
  80:External/led_panels_driver/Src/led_panels_driver.c ****   pixels_offset += GET_PANEL_SIZE(i, panels_sizes);
 284              		.loc 1 80 12 is_stmt 1 discriminator 1 view .LVU67
 285 0012 8342     		cmp	r3, r0
 286 0014 F7D3     		bcc	.L24
  82:External/led_panels_driver/Src/led_panels_driver.c **** 
  83:External/led_panels_driver/Src/led_panels_driver.c ****   return pixels_offset * PWM_PIXEL_SIZE;
 287              		.loc 1 83 3 view .LVU68
 288              		.loc 1 83 24 is_stmt 0 view .LVU69
 289 0016 02EB4200 		add	r0, r2, r2, lsl #1
 290              	.LVL24:
 291              		.loc 1 83 24 view .LVU70
 292 001a C000     		lsls	r0, r0, #3
 293              		.loc 1 83 24 discriminator 1 view .LVU71
 294 001c 80B2     		uxth	r0, r0
  84:External/led_panels_driver/Src/led_panels_driver.c **** }
 295              		.loc 1 84 1 view .LVU72
 296 001e 7047     		bx	lr
 297              		.cfi_endproc
 298              	.LFE5:
 300              		.section	.text.get_pixel_offset,"ax",%progbits
 301              		.align	1
 302              		.syntax unified
 303              		.thumb
 304              		.thumb_func
 306              	get_pixel_offset:
 307              	.LVL25:
ARM GAS  /tmp/ccskRnOE.s 			page 8


 308              	.LFB6:
  85:External/led_panels_driver/Src/led_panels_driver.c **** 
  86:External/led_panels_driver/Src/led_panels_driver.c **** static uint16_t get_pixel_offset(
  87:External/led_panels_driver/Src/led_panels_driver.c ****   uint8_t panel_index,
  88:External/led_panels_driver/Src/led_panels_driver.c ****   led_panels_size *panels_sizes,
  89:External/led_panels_driver/Src/led_panels_driver.c ****   uint8_t x,
  90:External/led_panels_driver/Src/led_panels_driver.c ****   uint8_t y
  91:External/led_panels_driver/Src/led_panels_driver.c **** )
  92:External/led_panels_driver/Src/led_panels_driver.c **** {
 309              		.loc 1 92 1 is_stmt 1 view -0
 310              		.cfi_startproc
 311              		@ args = 0, pretend = 0, frame = 0
 312              		@ frame_needed = 0, uses_anonymous_args = 0
 313              		@ link register save eliminated.
  93:External/led_panels_driver/Src/led_panels_driver.c ****   uint16_t side_size = get_side_size(
 314              		.loc 1 93 3 view .LVU74
 315              		.loc 1 93 24 is_stmt 0 view .LVU75
 316 0000 31F81010 		ldrh	r1, [r1, r0, lsl #1]
 317              	.LVL26:
 318              	.LBB9:
 319              	.LBI9:
  46:External/led_panels_driver/Src/led_panels_driver.c **** {
 320              		.loc 1 46 24 is_stmt 1 view .LVU76
 321              	.LBB10:
  48:External/led_panels_driver/Src/led_panels_driver.c ****   return sides_sizes[size >> 8]; // size / 256
 322              		.loc 1 48 3 view .LVU77
  49:External/led_panels_driver/Src/led_panels_driver.c **** }
 323              		.loc 1 49 3 view .LVU78
  49:External/led_panels_driver/Src/led_panels_driver.c **** }
 324              		.loc 1 49 27 is_stmt 0 view .LVU79
 325 0004 090A     		lsrs	r1, r1, #8
  49:External/led_panels_driver/Src/led_panels_driver.c **** }
 326              		.loc 1 49 21 view .LVU80
 327 0006 0448     		ldr	r0, .L26
 328              	.LVL27:
  49:External/led_panels_driver/Src/led_panels_driver.c **** }
 329              		.loc 1 49 21 view .LVU81
 330 0008 415C     		ldrb	r1, [r0, r1]	@ zero_extendqisi2
 331              	.LVL28:
  49:External/led_panels_driver/Src/led_panels_driver.c **** }
 332              		.loc 1 49 21 view .LVU82
 333              	.LBE10:
 334              	.LBE9:
  94:External/led_panels_driver/Src/led_panels_driver.c ****     GET_PANEL_SIZE(panel_index, panels_sizes)
  95:External/led_panels_driver/Src/led_panels_driver.c ****   );
  96:External/led_panels_driver/Src/led_panels_driver.c ****   return (x + y * side_size) * PWM_PIXEL_SIZE;
 335              		.loc 1 96 3 is_stmt 1 view .LVU83
 336              		.loc 1 96 13 is_stmt 0 view .LVU84
 337 000a 01FB0322 		mla	r2, r1, r3, r2
 338              	.LVL29:
 339              		.loc 1 96 30 view .LVU85
 340 000e 02EB4202 		add	r2, r2, r2, lsl #1
 341 0012 D000     		lsls	r0, r2, #3
 342              	.LVL30:
 343              		.loc 1 96 30 discriminator 1 view .LVU86
 344 0014 80B2     		uxth	r0, r0
  97:External/led_panels_driver/Src/led_panels_driver.c **** }
ARM GAS  /tmp/ccskRnOE.s 			page 9


 345              		.loc 1 97 1 view .LVU87
 346 0016 7047     		bx	lr
 347              	.L27:
 348              		.align	2
 349              	.L26:
 350 0018 00000000 		.word	sides_sizes.0
 351              		.cfi_endproc
 352              	.LFE6:
 354              		.section	.text.get_pwm_data_size,"ax",%progbits
 355              		.align	1
 356              		.syntax unified
 357              		.thumb
 358              		.thumb_func
 360              	get_pwm_data_size:
 361              	.LVL31:
 362              	.LFB7:
  98:External/led_panels_driver/Src/led_panels_driver.c **** 
  99:External/led_panels_driver/Src/led_panels_driver.c **** static uint16_t get_pwm_data_size(led_panels_buffer *buffer)
 100:External/led_panels_driver/Src/led_panels_driver.c **** {
 363              		.loc 1 100 1 is_stmt 1 view -0
 364              		.cfi_startproc
 365              		@ args = 0, pretend = 0, frame = 0
 366              		@ frame_needed = 0, uses_anonymous_args = 0
 367              		@ link register save eliminated.
 101:External/led_panels_driver/Src/led_panels_driver.c ****   uint16_t result = 0U;
 368              		.loc 1 101 3 view .LVU89
 102:External/led_panels_driver/Src/led_panels_driver.c **** 
 103:External/led_panels_driver/Src/led_panels_driver.c ****   uint8_t i = 0;
 369              		.loc 1 103 3 view .LVU90
 104:External/led_panels_driver/Src/led_panels_driver.c ****   for (; i < buffer->panels_num; i++)
 370              		.loc 1 104 3 view .LVU91
 103:External/led_panels_driver/Src/led_panels_driver.c ****   for (; i < buffer->panels_num; i++)
 371              		.loc 1 103 11 is_stmt 0 view .LVU92
 372 0000 0023     		movs	r3, #0
 101:External/led_panels_driver/Src/led_panels_driver.c **** 
 373              		.loc 1 101 12 view .LVU93
 374 0002 1A46     		mov	r2, r3
 375              		.loc 1 104 3 view .LVU94
 376 0004 06E0     		b	.L29
 377              	.LVL32:
 378              	.L30:
 105:External/led_panels_driver/Src/led_panels_driver.c ****     result += GET_PANEL_SIZE(i, buffer->panels_sizes);
 379              		.loc 1 105 5 is_stmt 1 view .LVU95
 380              		.loc 1 105 15 is_stmt 0 view .LVU96
 381 0006 8168     		ldr	r1, [r0, #8]
 382 0008 31F81310 		ldrh	r1, [r1, r3, lsl #1]
 383              		.loc 1 105 12 view .LVU97
 384 000c 0A44     		add	r2, r2, r1
 385              	.LVL33:
 386              		.loc 1 105 12 view .LVU98
 387 000e 92B2     		uxth	r2, r2
 388              	.LVL34:
 104:External/led_panels_driver/Src/led_panels_driver.c ****     result += GET_PANEL_SIZE(i, buffer->panels_sizes);
 389              		.loc 1 104 35 is_stmt 1 discriminator 2 view .LVU99
 390 0010 0133     		adds	r3, r3, #1
 391              	.LVL35:
 104:External/led_panels_driver/Src/led_panels_driver.c ****     result += GET_PANEL_SIZE(i, buffer->panels_sizes);
ARM GAS  /tmp/ccskRnOE.s 			page 10


 392              		.loc 1 104 35 is_stmt 0 discriminator 2 view .LVU100
 393 0012 DBB2     		uxtb	r3, r3
 394              	.LVL36:
 395              	.L29:
 104:External/led_panels_driver/Src/led_panels_driver.c ****     result += GET_PANEL_SIZE(i, buffer->panels_sizes);
 396              		.loc 1 104 12 is_stmt 1 discriminator 1 view .LVU101
 104:External/led_panels_driver/Src/led_panels_driver.c ****     result += GET_PANEL_SIZE(i, buffer->panels_sizes);
 397              		.loc 1 104 20 is_stmt 0 discriminator 1 view .LVU102
 398 0014 8188     		ldrh	r1, [r0, #4]
 104:External/led_panels_driver/Src/led_panels_driver.c ****     result += GET_PANEL_SIZE(i, buffer->panels_sizes);
 399              		.loc 1 104 12 discriminator 1 view .LVU103
 400 0016 8B42     		cmp	r3, r1
 401 0018 F5D3     		bcc	.L30
 106:External/led_panels_driver/Src/led_panels_driver.c **** 
 107:External/led_panels_driver/Src/led_panels_driver.c ****   return result * 3 * 8;
 402              		.loc 1 107 3 is_stmt 1 view .LVU104
 403              		.loc 1 107 21 is_stmt 0 view .LVU105
 404 001a 02EB4200 		add	r0, r2, r2, lsl #1
 405              	.LVL37:
 406              		.loc 1 107 21 view .LVU106
 407 001e C000     		lsls	r0, r0, #3
 408              		.loc 1 107 21 discriminator 1 view .LVU107
 409 0020 80B2     		uxth	r0, r0
 108:External/led_panels_driver/Src/led_panels_driver.c **** }
 410              		.loc 1 108 1 view .LVU108
 411 0022 7047     		bx	lr
 412              		.cfi_endproc
 413              	.LFE7:
 415              		.section	.text.check_bounds,"ax",%progbits
 416              		.align	1
 417              		.syntax unified
 418              		.thumb
 419              		.thumb_func
 421              	check_bounds:
 422              	.LVL38:
 423              	.LFB8:
 109:External/led_panels_driver/Src/led_panels_driver.c **** 
 110:External/led_panels_driver/Src/led_panels_driver.c **** static led_panels_status check_bounds(
 111:External/led_panels_driver/Src/led_panels_driver.c ****   led_panels_buffer *buffer,
 112:External/led_panels_driver/Src/led_panels_driver.c ****   uint8_t panel_index,
 113:External/led_panels_driver/Src/led_panels_driver.c ****   uint8_t x,
 114:External/led_panels_driver/Src/led_panels_driver.c ****   uint8_t y
 115:External/led_panels_driver/Src/led_panels_driver.c **** )
 116:External/led_panels_driver/Src/led_panels_driver.c **** {
 424              		.loc 1 116 1 is_stmt 1 view -0
 425              		.cfi_startproc
 426              		@ args = 0, pretend = 0, frame = 0
 427              		@ frame_needed = 0, uses_anonymous_args = 0
 428              		@ link register save eliminated.
 429              		.loc 1 116 1 is_stmt 0 view .LVU110
 430 0000 10B4     		push	{r4}
 431              	.LCFI4:
 432              		.cfi_def_cfa_offset 4
 433              		.cfi_offset 4, -4
 117:External/led_panels_driver/Src/led_panels_driver.c ****   uint16_t panel_side_size = get_side_size(
 434              		.loc 1 117 3 is_stmt 1 view .LVU111
 118:External/led_panels_driver/Src/led_panels_driver.c ****     buffer->panels_sizes[panel_index]
ARM GAS  /tmp/ccskRnOE.s 			page 11


 435              		.loc 1 118 11 is_stmt 0 view .LVU112
 436 0002 8468     		ldr	r4, [r0, #8]
 117:External/led_panels_driver/Src/led_panels_driver.c ****   uint16_t panel_side_size = get_side_size(
 437              		.loc 1 117 30 view .LVU113
 438 0004 34F811C0 		ldrh	ip, [r4, r1, lsl #1]
 439              	.LVL39:
 440              	.LBB11:
 441              	.LBI11:
  46:External/led_panels_driver/Src/led_panels_driver.c **** {
 442              		.loc 1 46 24 is_stmt 1 view .LVU114
 443              	.LBB12:
  48:External/led_panels_driver/Src/led_panels_driver.c ****   return sides_sizes[size >> 8]; // size / 256
 444              		.loc 1 48 3 view .LVU115
  49:External/led_panels_driver/Src/led_panels_driver.c **** }
 445              		.loc 1 49 3 view .LVU116
  49:External/led_panels_driver/Src/led_panels_driver.c **** }
 446              		.loc 1 49 27 is_stmt 0 view .LVU117
 447 0008 4FEA1C2C 		lsr	ip, ip, #8
  49:External/led_panels_driver/Src/led_panels_driver.c **** }
 448              		.loc 1 49 21 view .LVU118
 449 000c 094C     		ldr	r4, .L37
 450              	.LVL40:
  49:External/led_panels_driver/Src/led_panels_driver.c **** }
 451              		.loc 1 49 21 view .LVU119
 452 000e 14F80CC0 		ldrb	ip, [r4, ip]	@ zero_extendqisi2
 453              	.LVL41:
  49:External/led_panels_driver/Src/led_panels_driver.c **** }
 454              		.loc 1 49 21 view .LVU120
 455              	.LBE12:
 456              	.LBE11:
 119:External/led_panels_driver/Src/led_panels_driver.c ****   );
 120:External/led_panels_driver/Src/led_panels_driver.c **** 
 121:External/led_panels_driver/Src/led_panels_driver.c ****   if (panel_index >= buffer->panels_num)
 457              		.loc 1 121 3 is_stmt 1 view .LVU121
 458              		.loc 1 121 28 is_stmt 0 view .LVU122
 459 0012 8088     		ldrh	r0, [r0, #4]
 460              	.LVL42:
 461              		.loc 1 121 6 view .LVU123
 462 0014 8142     		cmp	r1, r0
 463 0016 05D2     		bcs	.L33
 122:External/led_panels_driver/Src/led_panels_driver.c ****     return LED_PANELS_ERROR;
 123:External/led_panels_driver/Src/led_panels_driver.c ****   if (x >= panel_side_size || y >= panel_side_size)
 464              		.loc 1 123 3 is_stmt 1 view .LVU124
 465              		.loc 1 123 6 is_stmt 0 view .LVU125
 466 0018 6245     		cmp	r2, ip
 467 001a 06D2     		bcs	.L34
 468              		.loc 1 123 28 discriminator 1 view .LVU126
 469 001c 6345     		cmp	r3, ip
 470 001e 06D2     		bcs	.L35
 124:External/led_panels_driver/Src/led_panels_driver.c ****     return LED_PANELS_ERROR;
 125:External/led_panels_driver/Src/led_panels_driver.c **** 
 126:External/led_panels_driver/Src/led_panels_driver.c ****   return LED_PANELS_OK;
 471              		.loc 1 126 10 view .LVU127
 472 0020 0020     		movs	r0, #0
 473 0022 00E0     		b	.L32
 474              	.L33:
 122:External/led_panels_driver/Src/led_panels_driver.c ****     return LED_PANELS_ERROR;
ARM GAS  /tmp/ccskRnOE.s 			page 12


 475              		.loc 1 122 12 view .LVU128
 476 0024 0120     		movs	r0, #1
 477              	.L32:
 127:External/led_panels_driver/Src/led_panels_driver.c **** }
 478              		.loc 1 127 1 view .LVU129
 479 0026 10BC     		pop	{r4}
 480              	.LCFI5:
 481              		.cfi_remember_state
 482              		.cfi_restore 4
 483              		.cfi_def_cfa_offset 0
 484 0028 7047     		bx	lr
 485              	.L34:
 486              	.LCFI6:
 487              		.cfi_restore_state
 124:External/led_panels_driver/Src/led_panels_driver.c ****     return LED_PANELS_ERROR;
 488              		.loc 1 124 12 view .LVU130
 489 002a 0120     		movs	r0, #1
 490 002c FBE7     		b	.L32
 491              	.L35:
 492 002e 0120     		movs	r0, #1
 493 0030 F9E7     		b	.L32
 494              	.L38:
 495 0032 00BF     		.align	2
 496              	.L37:
 497 0034 00000000 		.word	sides_sizes.0
 498              		.cfi_endproc
 499              	.LFE8:
 501              		.section	.text.led_panels_destroy,"ax",%progbits
 502              		.align	1
 503              		.global	led_panels_destroy
 504              		.syntax unified
 505              		.thumb
 506              		.thumb_func
 508              	led_panels_destroy:
 509              	.LVL43:
 510              	.LFB10:
 128:External/led_panels_driver/Src/led_panels_driver.c **** 
 129:External/led_panels_driver/Src/led_panels_driver.c **** // Implementations -----------------------------------------------------------
 130:External/led_panels_driver/Src/led_panels_driver.c **** 
 131:External/led_panels_driver/Src/led_panels_driver.c **** led_panels_buffer *led_panels_create(
 132:External/led_panels_driver/Src/led_panels_driver.c ****   uint8_t panels_num,
 133:External/led_panels_driver/Src/led_panels_driver.c ****   const led_panels_size *const panels_sizes
 134:External/led_panels_driver/Src/led_panels_driver.c **** )
 135:External/led_panels_driver/Src/led_panels_driver.c **** {
 136:External/led_panels_driver/Src/led_panels_driver.c ****   uint16_t pixels_num = 0U;
 137:External/led_panels_driver/Src/led_panels_driver.c **** 
 138:External/led_panels_driver/Src/led_panels_driver.c ****   led_panels_buffer *buffer = malloc(sizeof(led_panels_buffer));
 139:External/led_panels_driver/Src/led_panels_driver.c ****   buffer->panels_num = panels_num;
 140:External/led_panels_driver/Src/led_panels_driver.c ****   buffer->panels_sizes = calloc(panels_num, sizeof(led_panels_size));
 141:External/led_panels_driver/Src/led_panels_driver.c ****   memcpy(
 142:External/led_panels_driver/Src/led_panels_driver.c ****     buffer->panels_sizes,
 143:External/led_panels_driver/Src/led_panels_driver.c ****     panels_sizes,
 144:External/led_panels_driver/Src/led_panels_driver.c ****     sizeof(led_panels_size) * panels_num
 145:External/led_panels_driver/Src/led_panels_driver.c ****   );
 146:External/led_panels_driver/Src/led_panels_driver.c **** 
 147:External/led_panels_driver/Src/led_panels_driver.c ****   for (uint8_t i = 0; i < panels_num; i++)
 148:External/led_panels_driver/Src/led_panels_driver.c ****     pixels_num += (uint16_t)panels_sizes[i];
ARM GAS  /tmp/ccskRnOE.s 			page 13


 149:External/led_panels_driver/Src/led_panels_driver.c **** 
 150:External/led_panels_driver/Src/led_panels_driver.c ****   uint16_t total_size = pixels_num * 3 * 8 + 50;
 151:External/led_panels_driver/Src/led_panels_driver.c ****   buffer->pwm_data = calloc(total_size, sizeof(uint8_t));
 152:External/led_panels_driver/Src/led_panels_driver.c ****   memset(
 153:External/led_panels_driver/Src/led_panels_driver.c ****     buffer->pwm_data + (total_size - 50),
 154:External/led_panels_driver/Src/led_panels_driver.c ****     LED_PANELS_RESET_VALUE,
 155:External/led_panels_driver/Src/led_panels_driver.c ****     50 * sizeof(uint8_t)
 156:External/led_panels_driver/Src/led_panels_driver.c ****   ); // reset (above 50 us)
 157:External/led_panels_driver/Src/led_panels_driver.c ****   led_panels_flush(buffer);
 158:External/led_panels_driver/Src/led_panels_driver.c **** 
 159:External/led_panels_driver/Src/led_panels_driver.c ****   return buffer;
 160:External/led_panels_driver/Src/led_panels_driver.c **** }
 161:External/led_panels_driver/Src/led_panels_driver.c **** 
 162:External/led_panels_driver/Src/led_panels_driver.c **** void led_panels_destroy(led_panels_buffer *buffer)
 163:External/led_panels_driver/Src/led_panels_driver.c **** {
 511              		.loc 1 163 1 is_stmt 1 view -0
 512              		.cfi_startproc
 513              		@ args = 0, pretend = 0, frame = 0
 514              		@ frame_needed = 0, uses_anonymous_args = 0
 515              		.loc 1 163 1 is_stmt 0 view .LVU132
 516 0000 10B5     		push	{r4, lr}
 517              	.LCFI7:
 518              		.cfi_def_cfa_offset 8
 519              		.cfi_offset 4, -8
 520              		.cfi_offset 14, -4
 521 0002 0446     		mov	r4, r0
 164:External/led_panels_driver/Src/led_panels_driver.c ****   free(buffer->panels_sizes);
 522              		.loc 1 164 3 is_stmt 1 view .LVU133
 523 0004 8068     		ldr	r0, [r0, #8]
 524              	.LVL44:
 525              		.loc 1 164 3 is_stmt 0 view .LVU134
 526 0006 FFF7FEFF 		bl	free
 527              	.LVL45:
 165:External/led_panels_driver/Src/led_panels_driver.c ****   free(buffer->pwm_data);
 528              		.loc 1 165 3 is_stmt 1 view .LVU135
 529 000a 2068     		ldr	r0, [r4]
 530 000c FFF7FEFF 		bl	free
 531              	.LVL46:
 166:External/led_panels_driver/Src/led_panels_driver.c ****   free(buffer);
 532              		.loc 1 166 3 view .LVU136
 533 0010 2046     		mov	r0, r4
 534 0012 FFF7FEFF 		bl	free
 535              	.LVL47:
 167:External/led_panels_driver/Src/led_panels_driver.c ****   buffer = NULL;
 536              		.loc 1 167 3 view .LVU137
 168:External/led_panels_driver/Src/led_panels_driver.c **** }
 537              		.loc 1 168 1 is_stmt 0 view .LVU138
 538 0016 10BD     		pop	{r4, pc}
 539              		.cfi_endproc
 540              	.LFE10:
 542              		.section	.text.led_panels_get_pixel,"ax",%progbits
 543              		.align	1
 544              		.global	led_panels_get_pixel
 545              		.syntax unified
 546              		.thumb
 547              		.thumb_func
 549              	led_panels_get_pixel:
ARM GAS  /tmp/ccskRnOE.s 			page 14


 550              	.LVL48:
 551              	.LFB11:
 169:External/led_panels_driver/Src/led_panels_driver.c **** 
 170:External/led_panels_driver/Src/led_panels_driver.c **** led_panels_status led_panels_get_pixel(
 171:External/led_panels_driver/Src/led_panels_driver.c ****   led_panels_buffer *buffer,
 172:External/led_panels_driver/Src/led_panels_driver.c ****   const uint8_t panel_index,
 173:External/led_panels_driver/Src/led_panels_driver.c ****   const uint8_t pixel_x,
 174:External/led_panels_driver/Src/led_panels_driver.c ****   const uint8_t pixel_y,
 175:External/led_panels_driver/Src/led_panels_driver.c ****   led_panels_color *const pixel
 176:External/led_panels_driver/Src/led_panels_driver.c **** )
 177:External/led_panels_driver/Src/led_panels_driver.c **** {
 552              		.loc 1 177 1 is_stmt 1 view -0
 553              		.cfi_startproc
 554              		@ args = 4, pretend = 0, frame = 0
 555              		@ frame_needed = 0, uses_anonymous_args = 0
 556              		.loc 1 177 1 is_stmt 0 view .LVU140
 557 0000 2DE9F843 		push	{r3, r4, r5, r6, r7, r8, r9, lr}
 558              	.LCFI8:
 559              		.cfi_def_cfa_offset 32
 560              		.cfi_offset 3, -32
 561              		.cfi_offset 4, -28
 562              		.cfi_offset 5, -24
 563              		.cfi_offset 6, -20
 564              		.cfi_offset 7, -16
 565              		.cfi_offset 8, -12
 566              		.cfi_offset 9, -8
 567              		.cfi_offset 14, -4
 568 0004 0646     		mov	r6, r0
 569 0006 8846     		mov	r8, r1
 570 0008 1546     		mov	r5, r2
 571 000a 1C46     		mov	r4, r3
 178:External/led_panels_driver/Src/led_panels_driver.c ****   led_panels_status status = check_bounds(
 572              		.loc 1 178 3 is_stmt 1 view .LVU141
 573              		.loc 1 178 30 is_stmt 0 view .LVU142
 574 000c FFF7FEFF 		bl	check_bounds
 575              	.LVL49:
 179:External/led_panels_driver/Src/led_panels_driver.c ****     buffer, panel_index, pixel_x, pixel_y
 180:External/led_panels_driver/Src/led_panels_driver.c ****   );
 181:External/led_panels_driver/Src/led_panels_driver.c ****   if (status)
 576              		.loc 1 181 3 is_stmt 1 view .LVU143
 577              		.loc 1 181 6 is_stmt 0 view .LVU144
 578 0010 0746     		mov	r7, r0
 579 0012 10B1     		cbz	r0, .L44
 580              	.LVL50:
 581              	.L42:
 182:External/led_panels_driver/Src/led_panels_driver.c ****     return status;
 183:External/led_panels_driver/Src/led_panels_driver.c **** 
 184:External/led_panels_driver/Src/led_panels_driver.c ****   uint16_t panel_offset = get_panel_offset(
 185:External/led_panels_driver/Src/led_panels_driver.c ****     panel_index,
 186:External/led_panels_driver/Src/led_panels_driver.c ****     buffer->panels_sizes
 187:External/led_panels_driver/Src/led_panels_driver.c ****   );
 188:External/led_panels_driver/Src/led_panels_driver.c ****   uint8_t *panel = buffer->pwm_data + panel_offset;
 189:External/led_panels_driver/Src/led_panels_driver.c ****   uint16_t pwm_positions_offset = pixel_x * 3 + 
 190:External/led_panels_driver/Src/led_panels_driver.c ****     (pixel_y * 3 * (uint16_t)buffer->panels_sizes[panel_index]);
 191:External/led_panels_driver/Src/led_panels_driver.c **** 
 192:External/led_panels_driver/Src/led_panels_driver.c ****   convert_pwm_data_to_pixel(panel + pwm_positions_offset, pixel);
 193:External/led_panels_driver/Src/led_panels_driver.c **** 
ARM GAS  /tmp/ccskRnOE.s 			page 15


 194:External/led_panels_driver/Src/led_panels_driver.c ****   return LED_PANELS_OK;
 195:External/led_panels_driver/Src/led_panels_driver.c **** }
 582              		.loc 1 195 1 view .LVU145
 583 0014 3846     		mov	r0, r7
 584 0016 BDE8F883 		pop	{r3, r4, r5, r6, r7, r8, r9, pc}
 585              	.LVL51:
 586              	.L44:
 184:External/led_panels_driver/Src/led_panels_driver.c ****     panel_index,
 587              		.loc 1 184 3 is_stmt 1 view .LVU146
 184:External/led_panels_driver/Src/led_panels_driver.c ****     panel_index,
 588              		.loc 1 184 27 is_stmt 0 view .LVU147
 589 001a D6F80890 		ldr	r9, [r6, #8]
 590 001e 4946     		mov	r1, r9
 591 0020 4046     		mov	r0, r8
 592              	.LVL52:
 184:External/led_panels_driver/Src/led_panels_driver.c ****     panel_index,
 593              		.loc 1 184 27 view .LVU148
 594 0022 FFF7FEFF 		bl	get_panel_offset
 595              	.LVL53:
 188:External/led_panels_driver/Src/led_panels_driver.c ****   uint16_t pwm_positions_offset = pixel_x * 3 + 
 596              		.loc 1 188 3 is_stmt 1 view .LVU149
 188:External/led_panels_driver/Src/led_panels_driver.c ****   uint16_t pwm_positions_offset = pixel_x * 3 + 
 597              		.loc 1 188 26 is_stmt 0 view .LVU150
 598 0026 3268     		ldr	r2, [r6]
 599              	.LVL54:
 189:External/led_panels_driver/Src/led_panels_driver.c ****     (pixel_y * 3 * (uint16_t)buffer->panels_sizes[panel_index]);
 600              		.loc 1 189 3 is_stmt 1 view .LVU151
 190:External/led_panels_driver/Src/led_panels_driver.c **** 
 601              		.loc 1 190 50 is_stmt 0 view .LVU152
 602 0028 39F81830 		ldrh	r3, [r9, r8, lsl #1]
 189:External/led_panels_driver/Src/led_panels_driver.c ****     (pixel_y * 3 * (uint16_t)buffer->panels_sizes[panel_index]);
 603              		.loc 1 189 47 view .LVU153
 604 002c 03FB0453 		mla	r3, r3, r4, r5
 189:External/led_panels_driver/Src/led_panels_driver.c ****     (pixel_y * 3 * (uint16_t)buffer->panels_sizes[panel_index]);
 605              		.loc 1 189 12 view .LVU154
 606 0030 03EB4303 		add	r3, r3, r3, lsl #1
 607 0034 9BB2     		uxth	r3, r3
 608              	.LVL55:
 192:External/led_panels_driver/Src/led_panels_driver.c **** 
 609              		.loc 1 192 3 is_stmt 1 view .LVU155
 610 0036 1844     		add	r0, r0, r3
 611              	.LVL56:
 192:External/led_panels_driver/Src/led_panels_driver.c **** 
 612              		.loc 1 192 3 is_stmt 0 view .LVU156
 613 0038 0899     		ldr	r1, [sp, #32]
 614 003a 1044     		add	r0, r0, r2
 615 003c FFF7FEFF 		bl	convert_pwm_data_to_pixel
 616              	.LVL57:
 194:External/led_panels_driver/Src/led_panels_driver.c **** }
 617              		.loc 1 194 3 is_stmt 1 view .LVU157
 194:External/led_panels_driver/Src/led_panels_driver.c **** }
 618              		.loc 1 194 10 is_stmt 0 view .LVU158
 619 0040 E8E7     		b	.L42
 620              		.cfi_endproc
 621              	.LFE11:
 623              		.section	.text.led_panels_set_pixel,"ax",%progbits
 624              		.align	1
ARM GAS  /tmp/ccskRnOE.s 			page 16


 625              		.global	led_panels_set_pixel
 626              		.syntax unified
 627              		.thumb
 628              		.thumb_func
 630              	led_panels_set_pixel:
 631              	.LVL58:
 632              	.LFB12:
 196:External/led_panels_driver/Src/led_panels_driver.c **** 
 197:External/led_panels_driver/Src/led_panels_driver.c **** led_panels_status led_panels_set_pixel(
 198:External/led_panels_driver/Src/led_panels_driver.c ****   led_panels_buffer *buffer,
 199:External/led_panels_driver/Src/led_panels_driver.c ****   const uint8_t panel_index,
 200:External/led_panels_driver/Src/led_panels_driver.c ****   const uint8_t pixel_x,
 201:External/led_panels_driver/Src/led_panels_driver.c ****   const uint8_t pixel_y,
 202:External/led_panels_driver/Src/led_panels_driver.c ****   const led_panels_color pixel
 203:External/led_panels_driver/Src/led_panels_driver.c **** )
 204:External/led_panels_driver/Src/led_panels_driver.c **** {
 633              		.loc 1 204 1 is_stmt 1 view -0
 634              		.cfi_startproc
 635              		@ args = 4, pretend = 0, frame = 0
 636              		@ frame_needed = 0, uses_anonymous_args = 0
 637              		.loc 1 204 1 is_stmt 0 view .LVU160
 638 0000 2DE9F047 		push	{r4, r5, r6, r7, r8, r9, r10, lr}
 639              	.LCFI9:
 640              		.cfi_def_cfa_offset 32
 641              		.cfi_offset 4, -32
 642              		.cfi_offset 5, -28
 643              		.cfi_offset 6, -24
 644              		.cfi_offset 7, -20
 645              		.cfi_offset 8, -16
 646              		.cfi_offset 9, -12
 647              		.cfi_offset 10, -8
 648              		.cfi_offset 14, -4
 649 0004 0446     		mov	r4, r0
 650 0006 8846     		mov	r8, r1
 651 0008 1746     		mov	r7, r2
 652 000a 1D46     		mov	r5, r3
 205:External/led_panels_driver/Src/led_panels_driver.c ****   led_panels_status status = check_bounds(
 653              		.loc 1 205 3 is_stmt 1 view .LVU161
 654              		.loc 1 205 30 is_stmt 0 view .LVU162
 655 000c FFF7FEFF 		bl	check_bounds
 656              	.LVL59:
 206:External/led_panels_driver/Src/led_panels_driver.c ****     buffer, panel_index, pixel_x, pixel_y
 207:External/led_panels_driver/Src/led_panels_driver.c ****   );
 208:External/led_panels_driver/Src/led_panels_driver.c ****   if (status)
 657              		.loc 1 208 3 is_stmt 1 view .LVU163
 658              		.loc 1 208 6 is_stmt 0 view .LVU164
 659 0010 8146     		mov	r9, r0
 660 0012 10B1     		cbz	r0, .L48
 661              	.LVL60:
 662              	.L46:
 209:External/led_panels_driver/Src/led_panels_driver.c ****     return status;
 210:External/led_panels_driver/Src/led_panels_driver.c **** 
 211:External/led_panels_driver/Src/led_panels_driver.c ****   uint16_t panel_offset = get_panel_offset(
 212:External/led_panels_driver/Src/led_panels_driver.c ****     panel_index,
 213:External/led_panels_driver/Src/led_panels_driver.c ****     buffer->panels_sizes
 214:External/led_panels_driver/Src/led_panels_driver.c ****   );
 215:External/led_panels_driver/Src/led_panels_driver.c ****   uint16_t pixel_offset = get_pixel_offset(
ARM GAS  /tmp/ccskRnOE.s 			page 17


 216:External/led_panels_driver/Src/led_panels_driver.c ****     panel_index,
 217:External/led_panels_driver/Src/led_panels_driver.c ****     buffer->panels_sizes,
 218:External/led_panels_driver/Src/led_panels_driver.c ****     pixel_x,
 219:External/led_panels_driver/Src/led_panels_driver.c ****     pixel_y
 220:External/led_panels_driver/Src/led_panels_driver.c ****   );
 221:External/led_panels_driver/Src/led_panels_driver.c **** 
 222:External/led_panels_driver/Src/led_panels_driver.c ****   convert_pixel_to_pwm_data(
 223:External/led_panels_driver/Src/led_panels_driver.c ****     buffer->pwm_data + panel_offset + pixel_offset,
 224:External/led_panels_driver/Src/led_panels_driver.c ****     (led_panels_color *const)&pixel
 225:External/led_panels_driver/Src/led_panels_driver.c ****   );
 226:External/led_panels_driver/Src/led_panels_driver.c **** 
 227:External/led_panels_driver/Src/led_panels_driver.c ****   return LED_PANELS_OK;
 228:External/led_panels_driver/Src/led_panels_driver.c **** }
 663              		.loc 1 228 1 view .LVU165
 664 0014 4846     		mov	r0, r9
 665 0016 BDE8F087 		pop	{r4, r5, r6, r7, r8, r9, r10, pc}
 666              	.LVL61:
 667              	.L48:
 211:External/led_panels_driver/Src/led_panels_driver.c ****     panel_index,
 668              		.loc 1 211 3 is_stmt 1 view .LVU166
 211:External/led_panels_driver/Src/led_panels_driver.c ****     panel_index,
 669              		.loc 1 211 27 is_stmt 0 view .LVU167
 670 001a D4F808A0 		ldr	r10, [r4, #8]
 671 001e 5146     		mov	r1, r10
 672 0020 4046     		mov	r0, r8
 673              	.LVL62:
 211:External/led_panels_driver/Src/led_panels_driver.c ****     panel_index,
 674              		.loc 1 211 27 view .LVU168
 675 0022 FFF7FEFF 		bl	get_panel_offset
 676              	.LVL63:
 677 0026 0646     		mov	r6, r0
 678              	.LVL64:
 215:External/led_panels_driver/Src/led_panels_driver.c ****     panel_index,
 679              		.loc 1 215 3 is_stmt 1 view .LVU169
 215:External/led_panels_driver/Src/led_panels_driver.c ****     panel_index,
 680              		.loc 1 215 27 is_stmt 0 view .LVU170
 681 0028 2B46     		mov	r3, r5
 682 002a 3A46     		mov	r2, r7
 683 002c 5146     		mov	r1, r10
 684 002e 4046     		mov	r0, r8
 685 0030 FFF7FEFF 		bl	get_pixel_offset
 686              	.LVL65:
 222:External/led_panels_driver/Src/led_panels_driver.c ****     buffer->pwm_data + panel_offset + pixel_offset,
 687              		.loc 1 222 3 is_stmt 1 view .LVU171
 223:External/led_panels_driver/Src/led_panels_driver.c ****     (led_panels_color *const)&pixel
 688              		.loc 1 223 11 is_stmt 0 view .LVU172
 689 0034 2368     		ldr	r3, [r4]
 223:External/led_panels_driver/Src/led_panels_driver.c ****     (led_panels_color *const)&pixel
 690              		.loc 1 223 37 view .LVU173
 691 0036 3044     		add	r0, r0, r6
 692              	.LVL66:
 222:External/led_panels_driver/Src/led_panels_driver.c ****     buffer->pwm_data + panel_offset + pixel_offset,
 693              		.loc 1 222 3 view .LVU174
 694 0038 08A9     		add	r1, sp, #32
 695 003a 1844     		add	r0, r0, r3
 696 003c FFF7FEFF 		bl	convert_pixel_to_pwm_data
 697              	.LVL67:
ARM GAS  /tmp/ccskRnOE.s 			page 18


 227:External/led_panels_driver/Src/led_panels_driver.c **** }
 698              		.loc 1 227 3 is_stmt 1 view .LVU175
 227:External/led_panels_driver/Src/led_panels_driver.c **** }
 699              		.loc 1 227 10 is_stmt 0 view .LVU176
 700 0040 E8E7     		b	.L46
 701              		.cfi_endproc
 702              	.LFE12:
 704              		.section	.text.led_panels_flush,"ax",%progbits
 705              		.align	1
 706              		.global	led_panels_flush
 707              		.syntax unified
 708              		.thumb
 709              		.thumb_func
 711              	led_panels_flush:
 712              	.LVL68:
 713              	.LFB13:
 229:External/led_panels_driver/Src/led_panels_driver.c **** 
 230:External/led_panels_driver/Src/led_panels_driver.c **** void led_panels_flush(led_panels_buffer *buffer)
 231:External/led_panels_driver/Src/led_panels_driver.c **** {
 714              		.loc 1 231 1 is_stmt 1 view -0
 715              		.cfi_startproc
 716              		@ args = 0, pretend = 0, frame = 0
 717              		@ frame_needed = 0, uses_anonymous_args = 0
 718              		.loc 1 231 1 is_stmt 0 view .LVU178
 719 0000 10B5     		push	{r4, lr}
 720              	.LCFI10:
 721              		.cfi_def_cfa_offset 8
 722              		.cfi_offset 4, -8
 723              		.cfi_offset 14, -4
 232:External/led_panels_driver/Src/led_panels_driver.c ****   memset(
 724              		.loc 1 232 3 is_stmt 1 view .LVU179
 233:External/led_panels_driver/Src/led_panels_driver.c ****     buffer->pwm_data,
 725              		.loc 1 233 11 is_stmt 0 view .LVU180
 726 0002 0468     		ldr	r4, [r0]
 234:External/led_panels_driver/Src/led_panels_driver.c ****     LED_PANELS_0_VALUE,
 235:External/led_panels_driver/Src/led_panels_driver.c ****     get_pwm_data_size(buffer)
 727              		.loc 1 235 5 view .LVU181
 728 0004 FFF7FEFF 		bl	get_pwm_data_size
 729              	.LVL69:
 730              		.loc 1 235 5 view .LVU182
 731 0008 0246     		mov	r2, r0
 232:External/led_panels_driver/Src/led_panels_driver.c ****     buffer->pwm_data,
 732              		.loc 1 232 3 view .LVU183
 733 000a 1E21     		movs	r1, #30
 734 000c 2046     		mov	r0, r4
 735 000e FFF7FEFF 		bl	memset
 736              	.LVL70:
 236:External/led_panels_driver/Src/led_panels_driver.c ****   );
 237:External/led_panels_driver/Src/led_panels_driver.c **** }
 737              		.loc 1 237 1 view .LVU184
 738 0012 10BD     		pop	{r4, pc}
 739              		.cfi_endproc
 740              	.LFE13:
 742              		.section	.text.led_panels_create,"ax",%progbits
 743              		.align	1
 744              		.global	led_panels_create
 745              		.syntax unified
ARM GAS  /tmp/ccskRnOE.s 			page 19


 746              		.thumb
 747              		.thumb_func
 749              	led_panels_create:
 750              	.LVL71:
 751              	.LFB9:
 135:External/led_panels_driver/Src/led_panels_driver.c ****   uint16_t pixels_num = 0U;
 752              		.loc 1 135 1 is_stmt 1 view -0
 753              		.cfi_startproc
 754              		@ args = 0, pretend = 0, frame = 0
 755              		@ frame_needed = 0, uses_anonymous_args = 0
 135:External/led_panels_driver/Src/led_panels_driver.c ****   uint16_t pixels_num = 0U;
 756              		.loc 1 135 1 is_stmt 0 view .LVU186
 757 0000 F8B5     		push	{r3, r4, r5, r6, r7, lr}
 758              	.LCFI11:
 759              		.cfi_def_cfa_offset 24
 760              		.cfi_offset 3, -24
 761              		.cfi_offset 4, -20
 762              		.cfi_offset 5, -16
 763              		.cfi_offset 6, -12
 764              		.cfi_offset 7, -8
 765              		.cfi_offset 14, -4
 766 0002 0646     		mov	r6, r0
 767 0004 0F46     		mov	r7, r1
 136:External/led_panels_driver/Src/led_panels_driver.c **** 
 768              		.loc 1 136 3 is_stmt 1 view .LVU187
 769              	.LVL72:
 138:External/led_panels_driver/Src/led_panels_driver.c ****   buffer->panels_num = panels_num;
 770              		.loc 1 138 3 view .LVU188
 138:External/led_panels_driver/Src/led_panels_driver.c ****   buffer->panels_num = panels_num;
 771              		.loc 1 138 31 is_stmt 0 view .LVU189
 772 0006 0C20     		movs	r0, #12
 773              	.LVL73:
 138:External/led_panels_driver/Src/led_panels_driver.c ****   buffer->panels_num = panels_num;
 774              		.loc 1 138 31 view .LVU190
 775 0008 FFF7FEFF 		bl	malloc
 776              	.LVL74:
 138:External/led_panels_driver/Src/led_panels_driver.c ****   buffer->panels_num = panels_num;
 777              		.loc 1 138 31 view .LVU191
 778 000c 0546     		mov	r5, r0
 779              	.LVL75:
 139:External/led_panels_driver/Src/led_panels_driver.c ****   buffer->panels_sizes = calloc(panels_num, sizeof(led_panels_size));
 780              		.loc 1 139 3 is_stmt 1 view .LVU192
 139:External/led_panels_driver/Src/led_panels_driver.c ****   buffer->panels_sizes = calloc(panels_num, sizeof(led_panels_size));
 781              		.loc 1 139 22 is_stmt 0 view .LVU193
 782 000e 8680     		strh	r6, [r0, #4]	@ movhi
 140:External/led_panels_driver/Src/led_panels_driver.c ****   memcpy(
 783              		.loc 1 140 3 is_stmt 1 view .LVU194
 140:External/led_panels_driver/Src/led_panels_driver.c ****   memcpy(
 784              		.loc 1 140 26 is_stmt 0 view .LVU195
 785 0010 0221     		movs	r1, #2
 786 0012 3046     		mov	r0, r6
 787              	.LVL76:
 140:External/led_panels_driver/Src/led_panels_driver.c ****   memcpy(
 788              		.loc 1 140 26 view .LVU196
 789 0014 FFF7FEFF 		bl	calloc
 790              	.LVL77:
 140:External/led_panels_driver/Src/led_panels_driver.c ****   memcpy(
ARM GAS  /tmp/ccskRnOE.s 			page 20


 791              		.loc 1 140 24 discriminator 1 view .LVU197
 792 0018 A860     		str	r0, [r5, #8]
 141:External/led_panels_driver/Src/led_panels_driver.c ****     buffer->panels_sizes,
 793              		.loc 1 141 3 is_stmt 1 view .LVU198
 794 001a 7200     		lsls	r2, r6, #1
 795 001c 3946     		mov	r1, r7
 796 001e FFF7FEFF 		bl	memcpy
 797              	.LVL78:
 147:External/led_panels_driver/Src/led_panels_driver.c ****     pixels_num += (uint16_t)panels_sizes[i];
 798              		.loc 1 147 3 view .LVU199
 799              	.LBB13:
 147:External/led_panels_driver/Src/led_panels_driver.c ****     pixels_num += (uint16_t)panels_sizes[i];
 800              		.loc 1 147 8 view .LVU200
 147:External/led_panels_driver/Src/led_panels_driver.c ****     pixels_num += (uint16_t)panels_sizes[i];
 801              		.loc 1 147 16 is_stmt 0 view .LVU201
 802 0022 0023     		movs	r3, #0
 803              	.LBE13:
 136:External/led_panels_driver/Src/led_panels_driver.c **** 
 804              		.loc 1 136 12 view .LVU202
 805 0024 1A46     		mov	r2, r3
 806              	.LBB14:
 147:External/led_panels_driver/Src/led_panels_driver.c ****     pixels_num += (uint16_t)panels_sizes[i];
 807              		.loc 1 147 3 view .LVU203
 808 0026 05E0     		b	.L52
 809              	.LVL79:
 810              	.L53:
 148:External/led_panels_driver/Src/led_panels_driver.c **** 
 811              		.loc 1 148 5 is_stmt 1 view .LVU204
 148:External/led_panels_driver/Src/led_panels_driver.c **** 
 812              		.loc 1 148 41 is_stmt 0 view .LVU205
 813 0028 37F81340 		ldrh	r4, [r7, r3, lsl #1]
 148:External/led_panels_driver/Src/led_panels_driver.c **** 
 814              		.loc 1 148 16 view .LVU206
 815 002c 2244     		add	r2, r2, r4
 816              	.LVL80:
 148:External/led_panels_driver/Src/led_panels_driver.c **** 
 817              		.loc 1 148 16 view .LVU207
 818 002e 92B2     		uxth	r2, r2
 819              	.LVL81:
 147:External/led_panels_driver/Src/led_panels_driver.c ****     pixels_num += (uint16_t)panels_sizes[i];
 820              		.loc 1 147 40 is_stmt 1 discriminator 3 view .LVU208
 821 0030 0133     		adds	r3, r3, #1
 822              	.LVL82:
 147:External/led_panels_driver/Src/led_panels_driver.c ****     pixels_num += (uint16_t)panels_sizes[i];
 823              		.loc 1 147 40 is_stmt 0 discriminator 3 view .LVU209
 824 0032 DBB2     		uxtb	r3, r3
 825              	.LVL83:
 826              	.L52:
 147:External/led_panels_driver/Src/led_panels_driver.c ****     pixels_num += (uint16_t)panels_sizes[i];
 827              		.loc 1 147 25 is_stmt 1 discriminator 1 view .LVU210
 828 0034 B342     		cmp	r3, r6
 829 0036 F7D3     		bcc	.L53
 830              	.LBE14:
 150:External/led_panels_driver/Src/led_panels_driver.c ****   buffer->pwm_data = calloc(total_size, sizeof(uint8_t));
 831              		.loc 1 150 3 view .LVU211
 150:External/led_panels_driver/Src/led_panels_driver.c ****   buffer->pwm_data = calloc(total_size, sizeof(uint8_t));
 832              		.loc 1 150 44 is_stmt 0 view .LVU212
ARM GAS  /tmp/ccskRnOE.s 			page 21


 833 0038 02EB4204 		add	r4, r2, r2, lsl #1
 834 003c E400     		lsls	r4, r4, #3
 835 003e A4B2     		uxth	r4, r4
 150:External/led_panels_driver/Src/led_panels_driver.c ****   buffer->pwm_data = calloc(total_size, sizeof(uint8_t));
 836              		.loc 1 150 12 view .LVU213
 837 0040 3234     		adds	r4, r4, #50
 838 0042 A4B2     		uxth	r4, r4
 839              	.LVL84:
 151:External/led_panels_driver/Src/led_panels_driver.c ****   memset(
 840              		.loc 1 151 3 is_stmt 1 view .LVU214
 151:External/led_panels_driver/Src/led_panels_driver.c ****   memset(
 841              		.loc 1 151 22 is_stmt 0 view .LVU215
 842 0044 0121     		movs	r1, #1
 843 0046 2046     		mov	r0, r4
 844 0048 FFF7FEFF 		bl	calloc
 845              	.LVL85:
 151:External/led_panels_driver/Src/led_panels_driver.c ****   memset(
 846              		.loc 1 151 20 discriminator 1 view .LVU216
 847 004c 2860     		str	r0, [r5]
 152:External/led_panels_driver/Src/led_panels_driver.c ****     buffer->pwm_data + (total_size - 50),
 848              		.loc 1 152 3 is_stmt 1 view .LVU217
 153:External/led_panels_driver/Src/led_panels_driver.c ****     LED_PANELS_RESET_VALUE,
 849              		.loc 1 153 22 is_stmt 0 view .LVU218
 850 004e 323C     		subs	r4, r4, #50
 851              	.LVL86:
 152:External/led_panels_driver/Src/led_panels_driver.c ****     buffer->pwm_data + (total_size - 50),
 852              		.loc 1 152 3 view .LVU219
 853 0050 3222     		movs	r2, #50
 854 0052 0021     		movs	r1, #0
 855 0054 2044     		add	r0, r0, r4
 856 0056 FFF7FEFF 		bl	memset
 857              	.LVL87:
 157:External/led_panels_driver/Src/led_panels_driver.c **** 
 858              		.loc 1 157 3 is_stmt 1 view .LVU220
 859 005a 2846     		mov	r0, r5
 860 005c FFF7FEFF 		bl	led_panels_flush
 861              	.LVL88:
 159:External/led_panels_driver/Src/led_panels_driver.c **** }
 862              		.loc 1 159 3 view .LVU221
 160:External/led_panels_driver/Src/led_panels_driver.c **** 
 863              		.loc 1 160 1 is_stmt 0 view .LVU222
 864 0060 2846     		mov	r0, r5
 865 0062 F8BD     		pop	{r3, r4, r5, r6, r7, pc}
 160:External/led_panels_driver/Src/led_panels_driver.c **** 
 866              		.loc 1 160 1 view .LVU223
 867              		.cfi_endproc
 868              	.LFE9:
 870              		.section	.text.led_panels_send,"ax",%progbits
 871              		.align	1
 872              		.global	led_panels_send
 873              		.syntax unified
 874              		.thumb
 875              		.thumb_func
 877              	led_panels_send:
 878              	.LVL89:
 879              	.LFB14:
 238:External/led_panels_driver/Src/led_panels_driver.c **** 
ARM GAS  /tmp/ccskRnOE.s 			page 22


 239:External/led_panels_driver/Src/led_panels_driver.c **** led_panels_status led_panels_send(led_panels_buffer *buffer)
 240:External/led_panels_driver/Src/led_panels_driver.c **** {
 880              		.loc 1 240 1 is_stmt 1 view -0
 881              		.cfi_startproc
 882              		@ args = 0, pretend = 0, frame = 0
 883              		@ frame_needed = 0, uses_anonymous_args = 0
 884              		.loc 1 240 1 is_stmt 0 view .LVU225
 885 0000 10B5     		push	{r4, lr}
 886              	.LCFI12:
 887              		.cfi_def_cfa_offset 8
 888              		.cfi_offset 4, -8
 889              		.cfi_offset 14, -4
 241:External/led_panels_driver/Src/led_panels_driver.c ****   return led_panels_io_send_data(
 890              		.loc 1 241 3 is_stmt 1 view .LVU226
 242:External/led_panels_driver/Src/led_panels_driver.c ****     buffer->pwm_data,
 891              		.loc 1 242 11 is_stmt 0 view .LVU227
 892 0002 0468     		ldr	r4, [r0]
 241:External/led_panels_driver/Src/led_panels_driver.c ****   return led_panels_io_send_data(
 893              		.loc 1 241 10 view .LVU228
 894 0004 FFF7FEFF 		bl	get_pwm_data_size
 895              	.LVL90:
 241:External/led_panels_driver/Src/led_panels_driver.c ****   return led_panels_io_send_data(
 896              		.loc 1 241 10 view .LVU229
 897 0008 0146     		mov	r1, r0
 241:External/led_panels_driver/Src/led_panels_driver.c ****   return led_panels_io_send_data(
 898              		.loc 1 241 10 discriminator 1 view .LVU230
 899 000a 2046     		mov	r0, r4
 900 000c FFF7FEFF 		bl	led_panels_io_send_data
 901              	.LVL91:
 243:External/led_panels_driver/Src/led_panels_driver.c ****     get_pwm_data_size(buffer)
 244:External/led_panels_driver/Src/led_panels_driver.c ****   );
 245:External/led_panels_driver/Src/led_panels_driver.c **** }
 902              		.loc 1 245 1 view .LVU231
 903 0010 10BD     		pop	{r4, pc}
 904              		.cfi_endproc
 905              	.LFE14:
 907              		.section	.rodata.sides_sizes.0,"a"
 908              		.align	2
 911              	sides_sizes.0:
 912 0000 0810     		.ascii	"\010\020"
 913              		.text
 914              	.Letext0:
 915              		.file 2 "/usr/local/src/arm-gnu-toolchain-13.2/arm-none-eabi/include/machine/_default_types.h"
 916              		.file 3 "/usr/local/src/arm-gnu-toolchain-13.2/arm-none-eabi/include/sys/_stdint.h"
 917              		.file 4 "External/led_panels_driver/Inc/led_panels_defs.h"
 918              		.file 5 "/usr/local/src/arm-gnu-toolchain-13.2/lib/gcc/arm-none-eabi/13.2.1/include/stddef.h"
 919              		.file 6 "External/led_panels_driver/Inc/led_panels_io.h"
 920              		.file 7 "/usr/local/src/arm-gnu-toolchain-13.2/arm-none-eabi/include/string.h"
 921              		.file 8 "/usr/local/src/arm-gnu-toolchain-13.2/arm-none-eabi/include/stdlib.h"
 922              		.file 9 "<built-in>"
ARM GAS  /tmp/ccskRnOE.s 			page 23

