ARM GAS  /tmp/ccFmZdH8.s 			page 1


   1              		.cpu cortex-m3
   2              		.arch armv7-m
   3              		.fpu softvfp
   4              		.eabi_attribute 20, 1
   5              		.eabi_attribute 21, 1
   6              		.eabi_attribute 23, 3
   7              		.eabi_attribute 24, 1
   8              		.eabi_attribute 25, 1
   9              		.eabi_attribute 26, 1
  10              		.eabi_attribute 30, 1
  11              		.eabi_attribute 34, 1
  12              		.eabi_attribute 18, 4
  13              		.file	"unity_fixture.c"
  14              		.text
  15              	.Ltext0:
  16              		.cfi_sections	.debug_frame
  17              		.file 1 "External/Unity-2.5.2/extras/fixture/src/unity_fixture.c"
  18              		.section	.rodata.announceTestRun.str1.4,"aMS",%progbits,1
  19              		.align	2
  20              	.LC0:
  21 0000 556E6974 		.ascii	"Unity test run \000"
  21      79207465 
  21      73742072 
  21      756E2000 
  22              		.align	2
  23              	.LC1:
  24 0010 206F6620 		.ascii	" of \000"
  24      00
  25              		.section	.text.announceTestRun,"ax",%progbits
  26              		.align	1
  27              		.syntax unified
  28              		.thumb
  29              		.thumb_func
  31              	announceTestRun:
  32              	.LVL0:
  33              	.LFB2:
   1:External/Unity-2.5.2/extras/fixture/src/unity_fixture.c **** /* Copyright (c) 2010 James Grenning and Contributed to Unity Project
   2:External/Unity-2.5.2/extras/fixture/src/unity_fixture.c ****  * ==========================================
   3:External/Unity-2.5.2/extras/fixture/src/unity_fixture.c ****  *  Unity Project - A Test Framework for C
   4:External/Unity-2.5.2/extras/fixture/src/unity_fixture.c ****  *  Copyright (c) 2007 Mike Karlesky, Mark VanderVoord, Greg Williams
   5:External/Unity-2.5.2/extras/fixture/src/unity_fixture.c ****  *  [Released under MIT License. Please refer to license.txt for details]
   6:External/Unity-2.5.2/extras/fixture/src/unity_fixture.c ****  * ========================================== */
   7:External/Unity-2.5.2/extras/fixture/src/unity_fixture.c **** 
   8:External/Unity-2.5.2/extras/fixture/src/unity_fixture.c **** #include "unity_fixture.h"
   9:External/Unity-2.5.2/extras/fixture/src/unity_fixture.c **** #include "unity_internals.h"
  10:External/Unity-2.5.2/extras/fixture/src/unity_fixture.c **** #include <string.h>
  11:External/Unity-2.5.2/extras/fixture/src/unity_fixture.c **** 
  12:External/Unity-2.5.2/extras/fixture/src/unity_fixture.c **** struct UNITY_FIXTURE_T UnityFixture;
  13:External/Unity-2.5.2/extras/fixture/src/unity_fixture.c **** 
  14:External/Unity-2.5.2/extras/fixture/src/unity_fixture.c **** /* If you decide to use the function pointer approach.
  15:External/Unity-2.5.2/extras/fixture/src/unity_fixture.c ****  * Build with -D UNITY_OUTPUT_CHAR=outputChar and include <stdio.h>
  16:External/Unity-2.5.2/extras/fixture/src/unity_fixture.c ****  * int (*outputChar)(int) = putchar; */
  17:External/Unity-2.5.2/extras/fixture/src/unity_fixture.c **** 
  18:External/Unity-2.5.2/extras/fixture/src/unity_fixture.c **** void setUp(void)    { /*does nothing*/ }
  19:External/Unity-2.5.2/extras/fixture/src/unity_fixture.c **** void tearDown(void) { /*does nothing*/ }
  20:External/Unity-2.5.2/extras/fixture/src/unity_fixture.c **** 
  21:External/Unity-2.5.2/extras/fixture/src/unity_fixture.c **** static void announceTestRun(unsigned int runNumber)
ARM GAS  /tmp/ccFmZdH8.s 			page 2


  22:External/Unity-2.5.2/extras/fixture/src/unity_fixture.c **** {
  34              		.loc 1 22 1 view -0
  35              		.cfi_startproc
  36              		@ args = 0, pretend = 0, frame = 0
  37              		@ frame_needed = 0, uses_anonymous_args = 0
  38              		.loc 1 22 1 is_stmt 0 view .LVU1
  39 0000 10B5     		push	{r4, lr}
  40              	.LCFI0:
  41              		.cfi_def_cfa_offset 8
  42              		.cfi_offset 4, -8
  43              		.cfi_offset 14, -4
  44 0002 0446     		mov	r4, r0
  23:External/Unity-2.5.2/extras/fixture/src/unity_fixture.c ****     UnityPrint("Unity test run ");
  45              		.loc 1 23 5 is_stmt 1 view .LVU2
  46 0004 0948     		ldr	r0, .L3
  47              	.LVL1:
  48              		.loc 1 23 5 is_stmt 0 view .LVU3
  49 0006 FFF7FEFF 		bl	UnityPrint
  50              	.LVL2:
  24:External/Unity-2.5.2/extras/fixture/src/unity_fixture.c ****     UnityPrintNumberUnsigned(runNumber+1);
  51              		.loc 1 24 5 is_stmt 1 view .LVU4
  52 000a 601C     		adds	r0, r4, #1
  53 000c FFF7FEFF 		bl	UnityPrintNumberUnsigned
  54              	.LVL3:
  25:External/Unity-2.5.2/extras/fixture/src/unity_fixture.c ****     UnityPrint(" of ");
  55              		.loc 1 25 5 view .LVU5
  56 0010 0748     		ldr	r0, .L3+4
  57 0012 FFF7FEFF 		bl	UnityPrint
  58              	.LVL4:
  26:External/Unity-2.5.2/extras/fixture/src/unity_fixture.c ****     UnityPrintNumberUnsigned(UnityFixture.RepeatCount);
  59              		.loc 1 26 5 view .LVU6
  60 0016 074B     		ldr	r3, .L3+8
  61 0018 9868     		ldr	r0, [r3, #8]
  62 001a FFF7FEFF 		bl	UnityPrintNumberUnsigned
  63              	.LVL5:
  27:External/Unity-2.5.2/extras/fixture/src/unity_fixture.c ****     UNITY_PRINT_EOL();
  64              		.loc 1 27 5 view .LVU7
  65 001e 0D20     		movs	r0, #13
  66 0020 FFF7FEFF 		bl	unity_config_put_c
  67              	.LVL6:
  68              		.loc 1 27 5 discriminator 1 view .LVU8
  69 0024 0A20     		movs	r0, #10
  70 0026 FFF7FEFF 		bl	unity_config_put_c
  71              	.LVL7:
  28:External/Unity-2.5.2/extras/fixture/src/unity_fixture.c **** }
  72              		.loc 1 28 1 is_stmt 0 view .LVU9
  73 002a 10BD     		pop	{r4, pc}
  74              	.LVL8:
  75              	.L4:
  76              		.loc 1 28 1 view .LVU10
  77              		.align	2
  78              	.L3:
  79 002c 00000000 		.word	.LC0
  80 0030 10000000 		.word	.LC1
  81 0034 00000000 		.word	UnityFixture
  82              		.cfi_endproc
  83              	.LFE2:
ARM GAS  /tmp/ccFmZdH8.s 			page 3


  85              		.section	.text.selected,"ax",%progbits
  86              		.align	1
  87              		.syntax unified
  88              		.thumb
  89              		.thumb_func
  91              	selected:
  92              	.LVL9:
  93              	.LFB4:
  29:External/Unity-2.5.2/extras/fixture/src/unity_fixture.c **** 
  30:External/Unity-2.5.2/extras/fixture/src/unity_fixture.c **** int UnityMain(int argc, const char* argv[], void (*runAllTests)(void))
  31:External/Unity-2.5.2/extras/fixture/src/unity_fixture.c **** {
  32:External/Unity-2.5.2/extras/fixture/src/unity_fixture.c ****     int result = UnityGetCommandLineOptions(argc, argv);
  33:External/Unity-2.5.2/extras/fixture/src/unity_fixture.c ****     unsigned int r;
  34:External/Unity-2.5.2/extras/fixture/src/unity_fixture.c ****     if (result != 0)
  35:External/Unity-2.5.2/extras/fixture/src/unity_fixture.c ****         return result;
  36:External/Unity-2.5.2/extras/fixture/src/unity_fixture.c **** 
  37:External/Unity-2.5.2/extras/fixture/src/unity_fixture.c ****     for (r = 0; r < UnityFixture.RepeatCount; r++)
  38:External/Unity-2.5.2/extras/fixture/src/unity_fixture.c ****     {
  39:External/Unity-2.5.2/extras/fixture/src/unity_fixture.c ****         UnityBegin(argv[0]);
  40:External/Unity-2.5.2/extras/fixture/src/unity_fixture.c ****         announceTestRun(r);
  41:External/Unity-2.5.2/extras/fixture/src/unity_fixture.c ****         runAllTests();
  42:External/Unity-2.5.2/extras/fixture/src/unity_fixture.c ****         if (!UnityFixture.Verbose) UNITY_PRINT_EOL();
  43:External/Unity-2.5.2/extras/fixture/src/unity_fixture.c ****         UnityEnd();
  44:External/Unity-2.5.2/extras/fixture/src/unity_fixture.c ****     }
  45:External/Unity-2.5.2/extras/fixture/src/unity_fixture.c **** 
  46:External/Unity-2.5.2/extras/fixture/src/unity_fixture.c ****     return (int)Unity.TestFailures;
  47:External/Unity-2.5.2/extras/fixture/src/unity_fixture.c **** }
  48:External/Unity-2.5.2/extras/fixture/src/unity_fixture.c **** 
  49:External/Unity-2.5.2/extras/fixture/src/unity_fixture.c **** static int selected(const char* filter, const char* name)
  50:External/Unity-2.5.2/extras/fixture/src/unity_fixture.c **** {
  94              		.loc 1 50 1 is_stmt 1 view -0
  95              		.cfi_startproc
  96              		@ args = 0, pretend = 0, frame = 0
  97              		@ frame_needed = 0, uses_anonymous_args = 0
  51:External/Unity-2.5.2/extras/fixture/src/unity_fixture.c ****     if (filter == 0)
  98              		.loc 1 51 5 view .LVU12
  99              		.loc 1 51 8 is_stmt 0 view .LVU13
 100 0000 48B1     		cbz	r0, .L7
  50:External/Unity-2.5.2/extras/fixture/src/unity_fixture.c ****     if (filter == 0)
 101              		.loc 1 50 1 view .LVU14
 102 0002 08B5     		push	{r3, lr}
 103              	.LCFI1:
 104              		.cfi_def_cfa_offset 8
 105              		.cfi_offset 3, -8
 106              		.cfi_offset 14, -4
 107 0004 0B46     		mov	r3, r1
 108 0006 0146     		mov	r1, r0
 109              	.LVL10:
  52:External/Unity-2.5.2/extras/fixture/src/unity_fixture.c ****         return 1;
  53:External/Unity-2.5.2/extras/fixture/src/unity_fixture.c ****     return strstr(name, filter) ? 1 : 0;
 110              		.loc 1 53 5 is_stmt 1 view .LVU15
 111              		.loc 1 53 12 is_stmt 0 view .LVU16
 112 0008 1846     		mov	r0, r3
 113              	.LVL11:
 114              		.loc 1 53 12 view .LVU17
 115 000a FFF7FEFF 		bl	strstr
 116              	.LVL12:
ARM GAS  /tmp/ccFmZdH8.s 			page 4


 117              		.loc 1 53 37 discriminator 1 view .LVU18
 118 000e 0038     		subs	r0, r0, #0
 119 0010 18BF     		it	ne
 120 0012 0120     		movne	r0, #1
  54:External/Unity-2.5.2/extras/fixture/src/unity_fixture.c **** }
 121              		.loc 1 54 1 view .LVU19
 122 0014 08BD     		pop	{r3, pc}
 123              	.LVL13:
 124              	.L7:
 125              	.LCFI2:
 126              		.cfi_def_cfa_offset 0
 127              		.cfi_restore 3
 128              		.cfi_restore 14
  52:External/Unity-2.5.2/extras/fixture/src/unity_fixture.c ****         return 1;
 129              		.loc 1 52 16 view .LVU20
 130 0016 0120     		movs	r0, #1
 131              	.LVL14:
 132              		.loc 1 54 1 view .LVU21
 133 0018 7047     		bx	lr
 134              		.cfi_endproc
 135              	.LFE4:
 137              		.section	.text.testSelected,"ax",%progbits
 138              		.align	1
 139              		.syntax unified
 140              		.thumb
 141              		.thumb_func
 143              	testSelected:
 144              	.LVL15:
 145              	.LFB5:
  55:External/Unity-2.5.2/extras/fixture/src/unity_fixture.c **** 
  56:External/Unity-2.5.2/extras/fixture/src/unity_fixture.c **** static int testSelected(const char* test)
  57:External/Unity-2.5.2/extras/fixture/src/unity_fixture.c **** {
 146              		.loc 1 57 1 is_stmt 1 view -0
 147              		.cfi_startproc
 148              		@ args = 0, pretend = 0, frame = 0
 149              		@ frame_needed = 0, uses_anonymous_args = 0
 150              		.loc 1 57 1 is_stmt 0 view .LVU23
 151 0000 08B5     		push	{r3, lr}
 152              	.LCFI3:
 153              		.cfi_def_cfa_offset 8
 154              		.cfi_offset 3, -8
 155              		.cfi_offset 14, -4
 156 0002 0146     		mov	r1, r0
  58:External/Unity-2.5.2/extras/fixture/src/unity_fixture.c ****     return selected(UnityFixture.NameFilter, test);
 157              		.loc 1 58 5 is_stmt 1 view .LVU24
 158              		.loc 1 58 12 is_stmt 0 view .LVU25
 159 0004 024B     		ldr	r3, .L14
 160 0006 D868     		ldr	r0, [r3, #12]
 161              	.LVL16:
 162              		.loc 1 58 12 view .LVU26
 163 0008 FFF7FEFF 		bl	selected
 164              	.LVL17:
  59:External/Unity-2.5.2/extras/fixture/src/unity_fixture.c **** }
 165              		.loc 1 59 1 view .LVU27
 166 000c 08BD     		pop	{r3, pc}
 167              	.L15:
 168 000e 00BF     		.align	2
ARM GAS  /tmp/ccFmZdH8.s 			page 5


 169              	.L14:
 170 0010 00000000 		.word	UnityFixture
 171              		.cfi_endproc
 172              	.LFE5:
 174              		.section	.text.groupSelected,"ax",%progbits
 175              		.align	1
 176              		.syntax unified
 177              		.thumb
 178              		.thumb_func
 180              	groupSelected:
 181              	.LVL18:
 182              	.LFB6:
  60:External/Unity-2.5.2/extras/fixture/src/unity_fixture.c **** 
  61:External/Unity-2.5.2/extras/fixture/src/unity_fixture.c **** static int groupSelected(const char* group)
  62:External/Unity-2.5.2/extras/fixture/src/unity_fixture.c **** {
 183              		.loc 1 62 1 is_stmt 1 view -0
 184              		.cfi_startproc
 185              		@ args = 0, pretend = 0, frame = 0
 186              		@ frame_needed = 0, uses_anonymous_args = 0
 187              		.loc 1 62 1 is_stmt 0 view .LVU29
 188 0000 08B5     		push	{r3, lr}
 189              	.LCFI4:
 190              		.cfi_def_cfa_offset 8
 191              		.cfi_offset 3, -8
 192              		.cfi_offset 14, -4
 193 0002 0146     		mov	r1, r0
  63:External/Unity-2.5.2/extras/fixture/src/unity_fixture.c ****     return selected(UnityFixture.GroupFilter, group);
 194              		.loc 1 63 5 is_stmt 1 view .LVU30
 195              		.loc 1 63 12 is_stmt 0 view .LVU31
 196 0004 024B     		ldr	r3, .L18
 197 0006 1869     		ldr	r0, [r3, #16]
 198              	.LVL19:
 199              		.loc 1 63 12 view .LVU32
 200 0008 FFF7FEFF 		bl	selected
 201              	.LVL20:
  64:External/Unity-2.5.2/extras/fixture/src/unity_fixture.c **** }
 202              		.loc 1 64 1 view .LVU33
 203 000c 08BD     		pop	{r3, pc}
 204              	.L19:
 205 000e 00BF     		.align	2
 206              	.L18:
 207 0010 00000000 		.word	UnityFixture
 208              		.cfi_endproc
 209              	.LFE6:
 211              		.section	.text.setUp,"ax",%progbits
 212              		.align	1
 213              		.global	setUp
 214              		.syntax unified
 215              		.thumb
 216              		.thumb_func
 218              	setUp:
 219              	.LFB0:
  18:External/Unity-2.5.2/extras/fixture/src/unity_fixture.c **** void tearDown(void) { /*does nothing*/ }
 220              		.loc 1 18 21 is_stmt 1 view -0
 221              		.cfi_startproc
 222              		@ args = 0, pretend = 0, frame = 0
 223              		@ frame_needed = 0, uses_anonymous_args = 0
ARM GAS  /tmp/ccFmZdH8.s 			page 6


 224              		@ link register save eliminated.
  18:External/Unity-2.5.2/extras/fixture/src/unity_fixture.c **** void tearDown(void) { /*does nothing*/ }
 225              		.loc 1 18 40 view .LVU35
 226 0000 7047     		bx	lr
 227              		.cfi_endproc
 228              	.LFE0:
 230              		.section	.text.tearDown,"ax",%progbits
 231              		.align	1
 232              		.global	tearDown
 233              		.syntax unified
 234              		.thumb
 235              		.thumb_func
 237              	tearDown:
 238              	.LFB1:
  19:External/Unity-2.5.2/extras/fixture/src/unity_fixture.c **** 
 239              		.loc 1 19 21 view -0
 240              		.cfi_startproc
 241              		@ args = 0, pretend = 0, frame = 0
 242              		@ frame_needed = 0, uses_anonymous_args = 0
 243              		@ link register save eliminated.
  19:External/Unity-2.5.2/extras/fixture/src/unity_fixture.c **** 
 244              		.loc 1 19 40 view .LVU37
 245 0000 7047     		bx	lr
 246              		.cfi_endproc
 247              	.LFE1:
 249              		.section	.text.UnityIgnoreTest,"ax",%progbits
 250              		.align	1
 251              		.global	UnityIgnoreTest
 252              		.syntax unified
 253              		.thumb
 254              		.thumb_func
 256              	UnityIgnoreTest:
 257              	.LVL21:
 258              	.LFB8:
  65:External/Unity-2.5.2/extras/fixture/src/unity_fixture.c **** 
  66:External/Unity-2.5.2/extras/fixture/src/unity_fixture.c **** void UnityTestRunner(unityfunction* setup,
  67:External/Unity-2.5.2/extras/fixture/src/unity_fixture.c ****                      unityfunction* testBody,
  68:External/Unity-2.5.2/extras/fixture/src/unity_fixture.c ****                      unityfunction* teardown,
  69:External/Unity-2.5.2/extras/fixture/src/unity_fixture.c ****                      const char* printableName,
  70:External/Unity-2.5.2/extras/fixture/src/unity_fixture.c ****                      const char* group,
  71:External/Unity-2.5.2/extras/fixture/src/unity_fixture.c ****                      const char* name,
  72:External/Unity-2.5.2/extras/fixture/src/unity_fixture.c ****                      const char* file,
  73:External/Unity-2.5.2/extras/fixture/src/unity_fixture.c ****                      unsigned int line)
  74:External/Unity-2.5.2/extras/fixture/src/unity_fixture.c **** {
  75:External/Unity-2.5.2/extras/fixture/src/unity_fixture.c ****     if (testSelected(name) && groupSelected(group))
  76:External/Unity-2.5.2/extras/fixture/src/unity_fixture.c ****     {
  77:External/Unity-2.5.2/extras/fixture/src/unity_fixture.c ****         Unity.TestFile = file;
  78:External/Unity-2.5.2/extras/fixture/src/unity_fixture.c ****         Unity.CurrentTestName = printableName;
  79:External/Unity-2.5.2/extras/fixture/src/unity_fixture.c ****         Unity.CurrentTestLineNumber = line;
  80:External/Unity-2.5.2/extras/fixture/src/unity_fixture.c ****         if (UnityFixture.Verbose)
  81:External/Unity-2.5.2/extras/fixture/src/unity_fixture.c ****         {
  82:External/Unity-2.5.2/extras/fixture/src/unity_fixture.c ****             UnityPrint(printableName);
  83:External/Unity-2.5.2/extras/fixture/src/unity_fixture.c ****         #ifndef UNITY_REPEAT_TEST_NAME
  84:External/Unity-2.5.2/extras/fixture/src/unity_fixture.c ****             Unity.CurrentTestName = NULL;
  85:External/Unity-2.5.2/extras/fixture/src/unity_fixture.c ****         #endif
  86:External/Unity-2.5.2/extras/fixture/src/unity_fixture.c ****         }
  87:External/Unity-2.5.2/extras/fixture/src/unity_fixture.c ****         else if (UnityFixture.Silent)
ARM GAS  /tmp/ccFmZdH8.s 			page 7


  88:External/Unity-2.5.2/extras/fixture/src/unity_fixture.c ****         {
  89:External/Unity-2.5.2/extras/fixture/src/unity_fixture.c ****             /* Do Nothing */
  90:External/Unity-2.5.2/extras/fixture/src/unity_fixture.c ****         }
  91:External/Unity-2.5.2/extras/fixture/src/unity_fixture.c ****         else
  92:External/Unity-2.5.2/extras/fixture/src/unity_fixture.c ****         {
  93:External/Unity-2.5.2/extras/fixture/src/unity_fixture.c ****             UNITY_OUTPUT_CHAR('.');
  94:External/Unity-2.5.2/extras/fixture/src/unity_fixture.c ****         }
  95:External/Unity-2.5.2/extras/fixture/src/unity_fixture.c **** 
  96:External/Unity-2.5.2/extras/fixture/src/unity_fixture.c ****         Unity.NumberOfTests++;
  97:External/Unity-2.5.2/extras/fixture/src/unity_fixture.c ****         UnityPointer_Init();
  98:External/Unity-2.5.2/extras/fixture/src/unity_fixture.c **** 
  99:External/Unity-2.5.2/extras/fixture/src/unity_fixture.c ****         UNITY_EXEC_TIME_START();
 100:External/Unity-2.5.2/extras/fixture/src/unity_fixture.c **** 
 101:External/Unity-2.5.2/extras/fixture/src/unity_fixture.c ****         if (TEST_PROTECT())
 102:External/Unity-2.5.2/extras/fixture/src/unity_fixture.c ****         {
 103:External/Unity-2.5.2/extras/fixture/src/unity_fixture.c ****             setup();
 104:External/Unity-2.5.2/extras/fixture/src/unity_fixture.c ****             testBody();
 105:External/Unity-2.5.2/extras/fixture/src/unity_fixture.c ****         }
 106:External/Unity-2.5.2/extras/fixture/src/unity_fixture.c ****         if (TEST_PROTECT())
 107:External/Unity-2.5.2/extras/fixture/src/unity_fixture.c ****         {
 108:External/Unity-2.5.2/extras/fixture/src/unity_fixture.c ****             teardown();
 109:External/Unity-2.5.2/extras/fixture/src/unity_fixture.c ****         }
 110:External/Unity-2.5.2/extras/fixture/src/unity_fixture.c ****         if (TEST_PROTECT())
 111:External/Unity-2.5.2/extras/fixture/src/unity_fixture.c ****         {
 112:External/Unity-2.5.2/extras/fixture/src/unity_fixture.c ****             UnityPointer_UndoAllSets();
 113:External/Unity-2.5.2/extras/fixture/src/unity_fixture.c ****         }
 114:External/Unity-2.5.2/extras/fixture/src/unity_fixture.c ****         UnityConcludeFixtureTest();
 115:External/Unity-2.5.2/extras/fixture/src/unity_fixture.c ****     }
 116:External/Unity-2.5.2/extras/fixture/src/unity_fixture.c **** }
 117:External/Unity-2.5.2/extras/fixture/src/unity_fixture.c **** 
 118:External/Unity-2.5.2/extras/fixture/src/unity_fixture.c **** void UnityIgnoreTest(const char* printableName, const char* group, const char* name)
 119:External/Unity-2.5.2/extras/fixture/src/unity_fixture.c **** {
 259              		.loc 1 119 1 view -0
 260              		.cfi_startproc
 261              		@ args = 0, pretend = 0, frame = 0
 262              		@ frame_needed = 0, uses_anonymous_args = 0
 263              		.loc 1 119 1 is_stmt 0 view .LVU39
 264 0000 38B5     		push	{r3, r4, r5, lr}
 265              	.LCFI5:
 266              		.cfi_def_cfa_offset 16
 267              		.cfi_offset 3, -16
 268              		.cfi_offset 4, -12
 269              		.cfi_offset 5, -8
 270              		.cfi_offset 14, -4
 271 0002 0546     		mov	r5, r0
 272 0004 0C46     		mov	r4, r1
 120:External/Unity-2.5.2/extras/fixture/src/unity_fixture.c ****     if (testSelected(name) && groupSelected(group))
 273              		.loc 1 120 5 is_stmt 1 view .LVU40
 274              		.loc 1 120 9 is_stmt 0 view .LVU41
 275 0006 1046     		mov	r0, r2
 276              	.LVL22:
 277              		.loc 1 120 9 view .LVU42
 278 0008 FFF7FEFF 		bl	testSelected
 279              	.LVL23:
 280              		.loc 1 120 8 discriminator 1 view .LVU43
 281 000c 80B1     		cbz	r0, .L22
 282              		.loc 1 120 31 discriminator 1 view .LVU44
ARM GAS  /tmp/ccFmZdH8.s 			page 8


 283 000e 2046     		mov	r0, r4
 284 0010 FFF7FEFF 		bl	groupSelected
 285              	.LVL24:
 286              		.loc 1 120 28 discriminator 1 view .LVU45
 287 0014 60B1     		cbz	r0, .L22
 121:External/Unity-2.5.2/extras/fixture/src/unity_fixture.c ****     {
 122:External/Unity-2.5.2/extras/fixture/src/unity_fixture.c ****         Unity.NumberOfTests++;
 288              		.loc 1 122 9 is_stmt 1 view .LVU46
 289              		.loc 1 122 14 is_stmt 0 view .LVU47
 290 0016 0E4B     		ldr	r3, .L28
 291 0018 5A69     		ldr	r2, [r3, #20]
 292              		.loc 1 122 28 view .LVU48
 293 001a 0132     		adds	r2, r2, #1
 294 001c 5A61     		str	r2, [r3, #20]
 123:External/Unity-2.5.2/extras/fixture/src/unity_fixture.c ****         Unity.TestIgnores++;
 295              		.loc 1 123 9 is_stmt 1 view .LVU49
 296              		.loc 1 123 14 is_stmt 0 view .LVU50
 297 001e DA69     		ldr	r2, [r3, #28]
 298              		.loc 1 123 26 view .LVU51
 299 0020 0132     		adds	r2, r2, #1
 300 0022 DA61     		str	r2, [r3, #28]
 124:External/Unity-2.5.2/extras/fixture/src/unity_fixture.c ****         if (UnityFixture.Verbose)
 301              		.loc 1 124 9 is_stmt 1 view .LVU52
 302              		.loc 1 124 25 is_stmt 0 view .LVU53
 303 0024 0B4B     		ldr	r3, .L28+4
 304 0026 1B68     		ldr	r3, [r3]
 305              		.loc 1 124 12 view .LVU54
 306 0028 1BB9     		cbnz	r3, .L26
 125:External/Unity-2.5.2/extras/fixture/src/unity_fixture.c ****         {
 126:External/Unity-2.5.2/extras/fixture/src/unity_fixture.c ****             UnityPrint(printableName);
 127:External/Unity-2.5.2/extras/fixture/src/unity_fixture.c ****             UNITY_PRINT_EOL();
 128:External/Unity-2.5.2/extras/fixture/src/unity_fixture.c ****         }
 129:External/Unity-2.5.2/extras/fixture/src/unity_fixture.c ****         else if (UnityFixture.Silent)
 307              		.loc 1 129 14 is_stmt 1 view .LVU55
 308              		.loc 1 129 30 is_stmt 0 view .LVU56
 309 002a 0A4B     		ldr	r3, .L28+4
 310 002c 5B68     		ldr	r3, [r3, #4]
 311              		.loc 1 129 17 view .LVU57
 312 002e 53B1     		cbz	r3, .L27
 313              	.L22:
 130:External/Unity-2.5.2/extras/fixture/src/unity_fixture.c ****         {
 131:External/Unity-2.5.2/extras/fixture/src/unity_fixture.c ****             /* Do Nothing */
 132:External/Unity-2.5.2/extras/fixture/src/unity_fixture.c ****         }
 133:External/Unity-2.5.2/extras/fixture/src/unity_fixture.c ****         else
 134:External/Unity-2.5.2/extras/fixture/src/unity_fixture.c ****         {
 135:External/Unity-2.5.2/extras/fixture/src/unity_fixture.c ****             UNITY_OUTPUT_CHAR('!');
 136:External/Unity-2.5.2/extras/fixture/src/unity_fixture.c ****         }
 137:External/Unity-2.5.2/extras/fixture/src/unity_fixture.c ****     }
 138:External/Unity-2.5.2/extras/fixture/src/unity_fixture.c **** }
 314              		.loc 1 138 1 view .LVU58
 315 0030 38BD     		pop	{r3, r4, r5, pc}
 316              	.LVL25:
 317              	.L26:
 126:External/Unity-2.5.2/extras/fixture/src/unity_fixture.c ****             UNITY_PRINT_EOL();
 318              		.loc 1 126 13 is_stmt 1 view .LVU59
 319 0032 2846     		mov	r0, r5
 320 0034 FFF7FEFF 		bl	UnityPrint
ARM GAS  /tmp/ccFmZdH8.s 			page 9


 321              	.LVL26:
 127:External/Unity-2.5.2/extras/fixture/src/unity_fixture.c ****         }
 322              		.loc 1 127 13 view .LVU60
 323 0038 0D20     		movs	r0, #13
 324 003a FFF7FEFF 		bl	unity_config_put_c
 325              	.LVL27:
 127:External/Unity-2.5.2/extras/fixture/src/unity_fixture.c ****         }
 326              		.loc 1 127 13 discriminator 1 view .LVU61
 327 003e 0A20     		movs	r0, #10
 328 0040 FFF7FEFF 		bl	unity_config_put_c
 329              	.LVL28:
 330 0044 F4E7     		b	.L22
 331              	.L27:
 135:External/Unity-2.5.2/extras/fixture/src/unity_fixture.c ****         }
 332              		.loc 1 135 13 view .LVU62
 333 0046 2120     		movs	r0, #33
 334 0048 FFF7FEFF 		bl	unity_config_put_c
 335              	.LVL29:
 336              		.loc 1 138 1 is_stmt 0 view .LVU63
 337 004c F0E7     		b	.L22
 338              	.L29:
 339 004e 00BF     		.align	2
 340              	.L28:
 341 0050 00000000 		.word	Unity
 342 0054 00000000 		.word	UnityFixture
 343              		.cfi_endproc
 344              	.LFE8:
 346              		.section	.text.UnityPointer_Init,"ax",%progbits
 347              		.align	1
 348              		.global	UnityPointer_Init
 349              		.syntax unified
 350              		.thumb
 351              		.thumb_func
 353              	UnityPointer_Init:
 354              	.LFB9:
 139:External/Unity-2.5.2/extras/fixture/src/unity_fixture.c **** 
 140:External/Unity-2.5.2/extras/fixture/src/unity_fixture.c **** /*-------------------------------------------------------- */
 141:External/Unity-2.5.2/extras/fixture/src/unity_fixture.c **** /*Automatic pointer restoration functions */
 142:External/Unity-2.5.2/extras/fixture/src/unity_fixture.c **** struct PointerPair
 143:External/Unity-2.5.2/extras/fixture/src/unity_fixture.c **** {
 144:External/Unity-2.5.2/extras/fixture/src/unity_fixture.c ****     void** pointer;
 145:External/Unity-2.5.2/extras/fixture/src/unity_fixture.c ****     void* old_value;
 146:External/Unity-2.5.2/extras/fixture/src/unity_fixture.c **** };
 147:External/Unity-2.5.2/extras/fixture/src/unity_fixture.c **** 
 148:External/Unity-2.5.2/extras/fixture/src/unity_fixture.c **** static struct PointerPair pointer_store[UNITY_MAX_POINTERS];
 149:External/Unity-2.5.2/extras/fixture/src/unity_fixture.c **** static int pointer_index = 0;
 150:External/Unity-2.5.2/extras/fixture/src/unity_fixture.c **** 
 151:External/Unity-2.5.2/extras/fixture/src/unity_fixture.c **** void UnityPointer_Init(void)
 152:External/Unity-2.5.2/extras/fixture/src/unity_fixture.c **** {
 355              		.loc 1 152 1 is_stmt 1 view -0
 356              		.cfi_startproc
 357              		@ args = 0, pretend = 0, frame = 0
 358              		@ frame_needed = 0, uses_anonymous_args = 0
 359              		@ link register save eliminated.
 153:External/Unity-2.5.2/extras/fixture/src/unity_fixture.c ****     pointer_index = 0;
 360              		.loc 1 153 5 view .LVU65
 361              		.loc 1 153 19 is_stmt 0 view .LVU66
ARM GAS  /tmp/ccFmZdH8.s 			page 10


 362 0000 014B     		ldr	r3, .L31
 363 0002 0022     		movs	r2, #0
 364 0004 1A60     		str	r2, [r3]
 154:External/Unity-2.5.2/extras/fixture/src/unity_fixture.c **** }
 365              		.loc 1 154 1 view .LVU67
 366 0006 7047     		bx	lr
 367              	.L32:
 368              		.align	2
 369              	.L31:
 370 0008 00000000 		.word	pointer_index
 371              		.cfi_endproc
 372              	.LFE9:
 374              		.section	.rodata.UnityPointer_Set.str1.4,"aMS",%progbits,1
 375              		.align	2
 376              	.LC2:
 377 0000 546F6F20 		.ascii	"Too many pointers set\000"
 377      6D616E79 
 377      20706F69 
 377      6E746572 
 377      73207365 
 378              		.section	.text.UnityPointer_Set,"ax",%progbits
 379              		.align	1
 380              		.global	UnityPointer_Set
 381              		.syntax unified
 382              		.thumb
 383              		.thumb_func
 385              	UnityPointer_Set:
 386              	.LVL30:
 387              	.LFB10:
 155:External/Unity-2.5.2/extras/fixture/src/unity_fixture.c **** 
 156:External/Unity-2.5.2/extras/fixture/src/unity_fixture.c **** void UnityPointer_Set(void** pointer, void* newValue, UNITY_LINE_TYPE line)
 157:External/Unity-2.5.2/extras/fixture/src/unity_fixture.c **** {
 388              		.loc 1 157 1 is_stmt 1 view -0
 389              		.cfi_startproc
 390              		@ args = 0, pretend = 0, frame = 0
 391              		@ frame_needed = 0, uses_anonymous_args = 0
 392              		.loc 1 157 1 is_stmt 0 view .LVU69
 393 0000 08B5     		push	{r3, lr}
 394              	.LCFI6:
 395              		.cfi_def_cfa_offset 8
 396              		.cfi_offset 3, -8
 397              		.cfi_offset 14, -4
 158:External/Unity-2.5.2/extras/fixture/src/unity_fixture.c ****     if (pointer_index >= UNITY_MAX_POINTERS)
 398              		.loc 1 158 5 is_stmt 1 view .LVU70
 399              		.loc 1 158 23 is_stmt 0 view .LVU71
 400 0002 0B4B     		ldr	r3, .L37
 401 0004 1B68     		ldr	r3, [r3]
 402              		.loc 1 158 8 view .LVU72
 403 0006 042B     		cmp	r3, #4
 404 0008 0DDC     		bgt	.L36
 159:External/Unity-2.5.2/extras/fixture/src/unity_fixture.c ****     {
 160:External/Unity-2.5.2/extras/fixture/src/unity_fixture.c ****         UNITY_TEST_FAIL(line, "Too many pointers set");
 161:External/Unity-2.5.2/extras/fixture/src/unity_fixture.c ****     }
 162:External/Unity-2.5.2/extras/fixture/src/unity_fixture.c ****     else
 163:External/Unity-2.5.2/extras/fixture/src/unity_fixture.c ****     {
 164:External/Unity-2.5.2/extras/fixture/src/unity_fixture.c ****         pointer_store[pointer_index].pointer = pointer;
 405              		.loc 1 164 9 is_stmt 1 view .LVU73
ARM GAS  /tmp/ccFmZdH8.s 			page 11


 406              		.loc 1 164 46 is_stmt 0 view .LVU74
 407 000a 0A4A     		ldr	r2, .L37+4
 408              	.LVL31:
 409              		.loc 1 164 46 view .LVU75
 410 000c 42F83300 		str	r0, [r2, r3, lsl #3]
 165:External/Unity-2.5.2/extras/fixture/src/unity_fixture.c ****         pointer_store[pointer_index].old_value = *pointer;
 411              		.loc 1 165 9 is_stmt 1 view .LVU76
 412              		.loc 1 165 48 is_stmt 0 view .LVU77
 413 0010 02EBC302 		add	r2, r2, r3, lsl #3
 414 0014 D0F800C0 		ldr	ip, [r0]
 415 0018 C2F804C0 		str	ip, [r2, #4]
 166:External/Unity-2.5.2/extras/fixture/src/unity_fixture.c ****         *pointer = newValue;
 416              		.loc 1 166 9 is_stmt 1 view .LVU78
 417              		.loc 1 166 18 is_stmt 0 view .LVU79
 418 001c 0160     		str	r1, [r0]
 167:External/Unity-2.5.2/extras/fixture/src/unity_fixture.c ****         pointer_index++;
 419              		.loc 1 167 9 is_stmt 1 view .LVU80
 420              		.loc 1 167 22 is_stmt 0 view .LVU81
 421 001e 0133     		adds	r3, r3, #1
 422 0020 034A     		ldr	r2, .L37
 423 0022 1360     		str	r3, [r2]
 168:External/Unity-2.5.2/extras/fixture/src/unity_fixture.c ****     }
 169:External/Unity-2.5.2/extras/fixture/src/unity_fixture.c **** }
 424              		.loc 1 169 1 view .LVU82
 425 0024 08BD     		pop	{r3, pc}
 426              	.LVL32:
 427              	.L36:
 160:External/Unity-2.5.2/extras/fixture/src/unity_fixture.c ****     }
 428              		.loc 1 160 9 is_stmt 1 view .LVU83
 429 0026 1146     		mov	r1, r2
 430              	.LVL33:
 160:External/Unity-2.5.2/extras/fixture/src/unity_fixture.c ****     }
 431              		.loc 1 160 9 is_stmt 0 view .LVU84
 432 0028 0348     		ldr	r0, .L37+8
 433              	.LVL34:
 160:External/Unity-2.5.2/extras/fixture/src/unity_fixture.c ****     }
 434              		.loc 1 160 9 view .LVU85
 435 002a FFF7FEFF 		bl	UnityFail
 436              	.LVL35:
 437              	.L38:
 160:External/Unity-2.5.2/extras/fixture/src/unity_fixture.c ****     }
 438              		.loc 1 160 9 view .LVU86
 439 002e 00BF     		.align	2
 440              	.L37:
 441 0030 00000000 		.word	pointer_index
 442 0034 00000000 		.word	pointer_store
 443 0038 00000000 		.word	.LC2
 444              		.cfi_endproc
 445              	.LFE10:
 447              		.section	.text.UnityPointer_UndoAllSets,"ax",%progbits
 448              		.align	1
 449              		.global	UnityPointer_UndoAllSets
 450              		.syntax unified
 451              		.thumb
 452              		.thumb_func
 454              	UnityPointer_UndoAllSets:
 455              	.LFB11:
ARM GAS  /tmp/ccFmZdH8.s 			page 12


 170:External/Unity-2.5.2/extras/fixture/src/unity_fixture.c **** 
 171:External/Unity-2.5.2/extras/fixture/src/unity_fixture.c **** void UnityPointer_UndoAllSets(void)
 172:External/Unity-2.5.2/extras/fixture/src/unity_fixture.c **** {
 456              		.loc 1 172 1 is_stmt 1 view -0
 457              		.cfi_startproc
 458              		@ args = 0, pretend = 0, frame = 0
 459              		@ frame_needed = 0, uses_anonymous_args = 0
 460              		@ link register save eliminated.
 173:External/Unity-2.5.2/extras/fixture/src/unity_fixture.c ****     while (pointer_index > 0)
 461              		.loc 1 173 5 view .LVU88
 462              		.loc 1 173 11 is_stmt 0 view .LVU89
 463 0000 09E0     		b	.L40
 464              	.L41:
 174:External/Unity-2.5.2/extras/fixture/src/unity_fixture.c ****     {
 175:External/Unity-2.5.2/extras/fixture/src/unity_fixture.c ****         pointer_index--;
 465              		.loc 1 175 9 is_stmt 1 view .LVU90
 466              		.loc 1 175 22 is_stmt 0 view .LVU91
 467 0002 013B     		subs	r3, r3, #1
 468 0004 064A     		ldr	r2, .L42
 469 0006 1360     		str	r3, [r2]
 176:External/Unity-2.5.2/extras/fixture/src/unity_fixture.c ****         *(pointer_store[pointer_index].pointer) =
 470              		.loc 1 176 9 is_stmt 1 view .LVU92
 471              		.loc 1 176 39 is_stmt 0 view .LVU93
 472 0008 064A     		ldr	r2, .L42+4
 473 000a 52F83310 		ldr	r1, [r2, r3, lsl #3]
 177:External/Unity-2.5.2/extras/fixture/src/unity_fixture.c ****             pointer_store[pointer_index].old_value;
 474              		.loc 1 177 41 view .LVU94
 475 000e 02EBC302 		add	r2, r2, r3, lsl #3
 476 0012 5368     		ldr	r3, [r2, #4]
 176:External/Unity-2.5.2/extras/fixture/src/unity_fixture.c ****         *(pointer_store[pointer_index].pointer) =
 477              		.loc 1 176 49 view .LVU95
 478 0014 0B60     		str	r3, [r1]
 479              	.L40:
 173:External/Unity-2.5.2/extras/fixture/src/unity_fixture.c ****     {
 480              		.loc 1 173 26 is_stmt 1 view .LVU96
 481 0016 024B     		ldr	r3, .L42
 482 0018 1B68     		ldr	r3, [r3]
 483 001a 002B     		cmp	r3, #0
 484 001c F1DC     		bgt	.L41
 178:External/Unity-2.5.2/extras/fixture/src/unity_fixture.c ****     }
 179:External/Unity-2.5.2/extras/fixture/src/unity_fixture.c **** }
 485              		.loc 1 179 1 is_stmt 0 view .LVU97
 486 001e 7047     		bx	lr
 487              	.L43:
 488              		.align	2
 489              	.L42:
 490 0020 00000000 		.word	pointer_index
 491 0024 00000000 		.word	pointer_store
 492              		.cfi_endproc
 493              	.LFE11:
 495              		.section	.rodata.UnityGetCommandLineOptions.str1.4,"aMS",%progbits,1
 496              		.align	2
 497              	.LC3:
 498 0000 2D6800   		.ascii	"-h\000"
 499 0003 00       		.align	2
 500              	.LC4:
 501 0004 2D2D6865 		.ascii	"--help\000"
ARM GAS  /tmp/ccFmZdH8.s 			page 13


 501      6C7000
 502 000b 00       		.align	2
 503              	.LC5:
 504 000c 52756E73 		.ascii	"Runs a series of unit tests.\000"
 504      20612073 
 504      65726965 
 504      73206F66 
 504      20756E69 
 505 0029 000000   		.align	2
 506              	.LC6:
 507 002c 5768656E 		.ascii	"When no flag is specified, all tests are run.\000"
 507      206E6F20 
 507      666C6167 
 507      20697320 
 507      73706563 
 508 005a 0000     		.align	2
 509              	.LC7:
 510 005c 4F707469 		.ascii	"Optional flags:\000"
 510      6F6E616C 
 510      20666C61 
 510      67733A00 
 511              		.align	2
 512              	.LC8:
 513 006c 20202D76 		.ascii	"  -v          Verbose output: show all tests execut"
 513      20202020 
 513      20202020 
 513      20205665 
 513      72626F73 
 514 009f 65642065 		.ascii	"ed even if they pass\000"
 514      76656E20 
 514      69662074 
 514      68657920 
 514      70617373 
 515              		.align	2
 516              	.LC9:
 517 00b4 20202D73 		.ascii	"  -s          Silent mode: minimal output showing o"
 517      20202020 
 517      20202020 
 517      20205369 
 517      6C656E74 
 518 00e7 6E6C7920 		.ascii	"nly test failures\000"
 518      74657374 
 518      20666169 
 518      6C757265 
 518      7300
 519 00f9 000000   		.align	2
 520              	.LC10:
 521 00fc 20202D67 		.ascii	"  -g NAME     Only run tests in groups that contain"
 521      204E414D 
 521      45202020 
 521      20204F6E 
 521      6C792072 
 522 012f 20746865 		.ascii	" the string NAME\000"
 522      20737472 
 522      696E6720 
 522      4E414D45 
 522      00
ARM GAS  /tmp/ccFmZdH8.s 			page 14


 523              		.align	2
 524              	.LC11:
 525 0140 20202D6E 		.ascii	"  -n NAME     Only run tests whose name contains th"
 525      204E414D 
 525      45202020 
 525      20204F6E 
 525      6C792072 
 526 0173 65207374 		.ascii	"e string NAME\000"
 526      72696E67 
 526      204E414D 
 526      4500
 527 0181 000000   		.align	2
 528              	.LC12:
 529 0184 20202D72 		.ascii	"  -r NUMBER   Repeatedly run all tests NUMBER times"
 529      204E554D 
 529      42455220 
 529      20205265 
 529      70656174 
 530 01b7 00       		.ascii	"\000"
 531              		.align	2
 532              	.LC13:
 533 01b8 20202D68 		.ascii	"  -h, --help  Display this help message\000"
 533      2C202D2D 
 533      68656C70 
 533      20204469 
 533      73706C61 
 534              		.align	2
 535              	.LC14:
 536 01e0 4D6F7265 		.ascii	"More information about Unity: https://www.throwthes"
 536      20696E66 
 536      6F726D61 
 536      74696F6E 
 536      2061626F 
 537 0213 77697463 		.ascii	"witch.org/unity\000"
 537      682E6F72 
 537      672F756E 
 537      69747900 
 538 0223 00       		.align	2
 539              	.LC15:
 540 0224 2D7600   		.ascii	"-v\000"
 541 0227 00       		.align	2
 542              	.LC16:
 543 0228 2D7300   		.ascii	"-s\000"
 544 022b 00       		.align	2
 545              	.LC17:
 546 022c 2D6700   		.ascii	"-g\000"
 547 022f 00       		.align	2
 548              	.LC18:
 549 0230 2D6E00   		.ascii	"-n\000"
 550 0233 00       		.align	2
 551              	.LC19:
 552 0234 2D7200   		.ascii	"-r\000"
 553              		.section	.text.UnityGetCommandLineOptions,"ax",%progbits
 554              		.align	1
 555              		.global	UnityGetCommandLineOptions
 556              		.syntax unified
 557              		.thumb
ARM GAS  /tmp/ccFmZdH8.s 			page 15


 558              		.thumb_func
 560              	UnityGetCommandLineOptions:
 561              	.LVL36:
 562              	.LFB12:
 180:External/Unity-2.5.2/extras/fixture/src/unity_fixture.c **** 
 181:External/Unity-2.5.2/extras/fixture/src/unity_fixture.c **** int UnityGetCommandLineOptions(int argc, const char* argv[])
 182:External/Unity-2.5.2/extras/fixture/src/unity_fixture.c **** {
 563              		.loc 1 182 1 is_stmt 1 view -0
 564              		.cfi_startproc
 565              		@ args = 0, pretend = 0, frame = 0
 566              		@ frame_needed = 0, uses_anonymous_args = 0
 567              		.loc 1 182 1 is_stmt 0 view .LVU99
 568 0000 F8B5     		push	{r3, r4, r5, r6, r7, lr}
 569              	.LCFI7:
 570              		.cfi_def_cfa_offset 24
 571              		.cfi_offset 3, -24
 572              		.cfi_offset 4, -20
 573              		.cfi_offset 5, -16
 574              		.cfi_offset 6, -12
 575              		.cfi_offset 7, -8
 576              		.cfi_offset 14, -4
 183:External/Unity-2.5.2/extras/fixture/src/unity_fixture.c ****     int i;
 577              		.loc 1 183 5 is_stmt 1 view .LVU100
 184:External/Unity-2.5.2/extras/fixture/src/unity_fixture.c ****     UnityFixture.Verbose = 0;
 578              		.loc 1 184 5 view .LVU101
 579              		.loc 1 184 26 is_stmt 0 view .LVU102
 580 0002 7C4B     		ldr	r3, .L66
 581 0004 0022     		movs	r2, #0
 582 0006 1A60     		str	r2, [r3]
 185:External/Unity-2.5.2/extras/fixture/src/unity_fixture.c ****     UnityFixture.Silent = 0;
 583              		.loc 1 185 5 is_stmt 1 view .LVU103
 584              		.loc 1 185 25 is_stmt 0 view .LVU104
 585 0008 5A60     		str	r2, [r3, #4]
 186:External/Unity-2.5.2/extras/fixture/src/unity_fixture.c ****     UnityFixture.GroupFilter = 0;
 586              		.loc 1 186 5 is_stmt 1 view .LVU105
 587              		.loc 1 186 30 is_stmt 0 view .LVU106
 588 000a 1A61     		str	r2, [r3, #16]
 187:External/Unity-2.5.2/extras/fixture/src/unity_fixture.c ****     UnityFixture.NameFilter = 0;
 589              		.loc 1 187 5 is_stmt 1 view .LVU107
 590              		.loc 1 187 29 is_stmt 0 view .LVU108
 591 000c DA60     		str	r2, [r3, #12]
 188:External/Unity-2.5.2/extras/fixture/src/unity_fixture.c ****     UnityFixture.RepeatCount = 1;
 592              		.loc 1 188 5 is_stmt 1 view .LVU109
 593              		.loc 1 188 30 is_stmt 0 view .LVU110
 594 000e 0122     		movs	r2, #1
 595 0010 9A60     		str	r2, [r3, #8]
 189:External/Unity-2.5.2/extras/fixture/src/unity_fixture.c **** 
 190:External/Unity-2.5.2/extras/fixture/src/unity_fixture.c ****     if (argc == 1)
 596              		.loc 1 190 5 is_stmt 1 view .LVU111
 597              		.loc 1 190 8 is_stmt 0 view .LVU112
 598 0012 9042     		cmp	r0, r2
 599 0014 00F0E880 		beq	.L58
 600 0018 0646     		mov	r6, r0
 601 001a 0F46     		mov	r7, r1
 191:External/Unity-2.5.2/extras/fixture/src/unity_fixture.c ****         return 0;
 192:External/Unity-2.5.2/extras/fixture/src/unity_fixture.c **** 
 193:External/Unity-2.5.2/extras/fixture/src/unity_fixture.c ****     for (i = 1; i < argc; )
ARM GAS  /tmp/ccFmZdH8.s 			page 16


 602              		.loc 1 193 12 view .LVU113
 603 001c 1546     		mov	r5, r2
 604 001e 76E0     		b	.L46
 605              	.LVL37:
 606              	.L47:
 194:External/Unity-2.5.2/extras/fixture/src/unity_fixture.c ****     {
 195:External/Unity-2.5.2/extras/fixture/src/unity_fixture.c ****         if (strcmp(argv[i], "-h") == 0 || strcmp(argv[i], "--help") == 0)
 196:External/Unity-2.5.2/extras/fixture/src/unity_fixture.c ****         {
 197:External/Unity-2.5.2/extras/fixture/src/unity_fixture.c ****             /* Usage */
 198:External/Unity-2.5.2/extras/fixture/src/unity_fixture.c ****             UnityPrint("Runs a series of unit tests.");
 607              		.loc 1 198 13 is_stmt 1 view .LVU114
 608 0020 7548     		ldr	r0, .L66+4
 609 0022 FFF7FEFF 		bl	UnityPrint
 610              	.LVL38:
 199:External/Unity-2.5.2/extras/fixture/src/unity_fixture.c ****             UNITY_PRINT_EOL();
 611              		.loc 1 199 13 view .LVU115
 612 0026 0D20     		movs	r0, #13
 613 0028 FFF7FEFF 		bl	unity_config_put_c
 614              	.LVL39:
 615              		.loc 1 199 13 discriminator 1 view .LVU116
 616 002c 0A20     		movs	r0, #10
 617 002e FFF7FEFF 		bl	unity_config_put_c
 618              	.LVL40:
 200:External/Unity-2.5.2/extras/fixture/src/unity_fixture.c ****             UNITY_PRINT_EOL();
 619              		.loc 1 200 13 view .LVU117
 620 0032 0D20     		movs	r0, #13
 621 0034 FFF7FEFF 		bl	unity_config_put_c
 622              	.LVL41:
 623              		.loc 1 200 13 discriminator 1 view .LVU118
 624 0038 0A20     		movs	r0, #10
 625 003a FFF7FEFF 		bl	unity_config_put_c
 626              	.LVL42:
 201:External/Unity-2.5.2/extras/fixture/src/unity_fixture.c ****             UnityPrint("When no flag is specified, all tests are run.");
 627              		.loc 1 201 13 view .LVU119
 628 003e 6F48     		ldr	r0, .L66+8
 629 0040 FFF7FEFF 		bl	UnityPrint
 630              	.LVL43:
 202:External/Unity-2.5.2/extras/fixture/src/unity_fixture.c ****             UNITY_PRINT_EOL();
 631              		.loc 1 202 13 view .LVU120
 632 0044 0D20     		movs	r0, #13
 633 0046 FFF7FEFF 		bl	unity_config_put_c
 634              	.LVL44:
 635              		.loc 1 202 13 discriminator 1 view .LVU121
 636 004a 0A20     		movs	r0, #10
 637 004c FFF7FEFF 		bl	unity_config_put_c
 638              	.LVL45:
 203:External/Unity-2.5.2/extras/fixture/src/unity_fixture.c ****             UNITY_PRINT_EOL();
 639              		.loc 1 203 13 view .LVU122
 640 0050 0D20     		movs	r0, #13
 641 0052 FFF7FEFF 		bl	unity_config_put_c
 642              	.LVL46:
 643              		.loc 1 203 13 discriminator 1 view .LVU123
 644 0056 0A20     		movs	r0, #10
 645 0058 FFF7FEFF 		bl	unity_config_put_c
 646              	.LVL47:
 204:External/Unity-2.5.2/extras/fixture/src/unity_fixture.c ****             UnityPrint("Optional flags:");
 647              		.loc 1 204 13 view .LVU124
ARM GAS  /tmp/ccFmZdH8.s 			page 17


 648 005c 6848     		ldr	r0, .L66+12
 649 005e FFF7FEFF 		bl	UnityPrint
 650              	.LVL48:
 205:External/Unity-2.5.2/extras/fixture/src/unity_fixture.c ****             UNITY_PRINT_EOL();
 651              		.loc 1 205 13 view .LVU125
 652 0062 0D20     		movs	r0, #13
 653 0064 FFF7FEFF 		bl	unity_config_put_c
 654              	.LVL49:
 655              		.loc 1 205 13 discriminator 1 view .LVU126
 656 0068 0A20     		movs	r0, #10
 657 006a FFF7FEFF 		bl	unity_config_put_c
 658              	.LVL50:
 206:External/Unity-2.5.2/extras/fixture/src/unity_fixture.c ****             UnityPrint("  -v          Verbose output: show all tests executed even if they pass");
 659              		.loc 1 206 13 view .LVU127
 660 006e 6548     		ldr	r0, .L66+16
 661 0070 FFF7FEFF 		bl	UnityPrint
 662              	.LVL51:
 207:External/Unity-2.5.2/extras/fixture/src/unity_fixture.c ****             UNITY_PRINT_EOL();
 663              		.loc 1 207 13 view .LVU128
 664 0074 0D20     		movs	r0, #13
 665 0076 FFF7FEFF 		bl	unity_config_put_c
 666              	.LVL52:
 667              		.loc 1 207 13 discriminator 1 view .LVU129
 668 007a 0A20     		movs	r0, #10
 669 007c FFF7FEFF 		bl	unity_config_put_c
 670              	.LVL53:
 208:External/Unity-2.5.2/extras/fixture/src/unity_fixture.c ****             UnityPrint("  -s          Silent mode: minimal output showing only test failures");
 671              		.loc 1 208 13 view .LVU130
 672 0080 6148     		ldr	r0, .L66+20
 673 0082 FFF7FEFF 		bl	UnityPrint
 674              	.LVL54:
 209:External/Unity-2.5.2/extras/fixture/src/unity_fixture.c ****             UNITY_PRINT_EOL();
 675              		.loc 1 209 13 view .LVU131
 676 0086 0D20     		movs	r0, #13
 677 0088 FFF7FEFF 		bl	unity_config_put_c
 678              	.LVL55:
 679              		.loc 1 209 13 discriminator 1 view .LVU132
 680 008c 0A20     		movs	r0, #10
 681 008e FFF7FEFF 		bl	unity_config_put_c
 682              	.LVL56:
 210:External/Unity-2.5.2/extras/fixture/src/unity_fixture.c ****             UnityPrint("  -g NAME     Only run tests in groups that contain the string NAME");
 683              		.loc 1 210 13 view .LVU133
 684 0092 5E48     		ldr	r0, .L66+24
 685 0094 FFF7FEFF 		bl	UnityPrint
 686              	.LVL57:
 211:External/Unity-2.5.2/extras/fixture/src/unity_fixture.c ****             UNITY_PRINT_EOL();
 687              		.loc 1 211 13 view .LVU134
 688 0098 0D20     		movs	r0, #13
 689 009a FFF7FEFF 		bl	unity_config_put_c
 690              	.LVL58:
 691              		.loc 1 211 13 discriminator 1 view .LVU135
 692 009e 0A20     		movs	r0, #10
 693 00a0 FFF7FEFF 		bl	unity_config_put_c
 694              	.LVL59:
 212:External/Unity-2.5.2/extras/fixture/src/unity_fixture.c ****             UnityPrint("  -n NAME     Only run tests whose name contains the string NAME");
 695              		.loc 1 212 13 view .LVU136
 696 00a4 5A48     		ldr	r0, .L66+28
ARM GAS  /tmp/ccFmZdH8.s 			page 18


 697 00a6 FFF7FEFF 		bl	UnityPrint
 698              	.LVL60:
 213:External/Unity-2.5.2/extras/fixture/src/unity_fixture.c ****             UNITY_PRINT_EOL();
 699              		.loc 1 213 13 view .LVU137
 700 00aa 0D20     		movs	r0, #13
 701 00ac FFF7FEFF 		bl	unity_config_put_c
 702              	.LVL61:
 703              		.loc 1 213 13 discriminator 1 view .LVU138
 704 00b0 0A20     		movs	r0, #10
 705 00b2 FFF7FEFF 		bl	unity_config_put_c
 706              	.LVL62:
 214:External/Unity-2.5.2/extras/fixture/src/unity_fixture.c ****             UnityPrint("  -r NUMBER   Repeatedly run all tests NUMBER times");
 707              		.loc 1 214 13 view .LVU139
 708 00b6 5748     		ldr	r0, .L66+32
 709 00b8 FFF7FEFF 		bl	UnityPrint
 710              	.LVL63:
 215:External/Unity-2.5.2/extras/fixture/src/unity_fixture.c ****             UNITY_PRINT_EOL();
 711              		.loc 1 215 13 view .LVU140
 712 00bc 0D20     		movs	r0, #13
 713 00be FFF7FEFF 		bl	unity_config_put_c
 714              	.LVL64:
 715              		.loc 1 215 13 discriminator 1 view .LVU141
 716 00c2 0A20     		movs	r0, #10
 717 00c4 FFF7FEFF 		bl	unity_config_put_c
 718              	.LVL65:
 216:External/Unity-2.5.2/extras/fixture/src/unity_fixture.c ****             UnityPrint("  -h, --help  Display this help message");
 719              		.loc 1 216 13 view .LVU142
 720 00c8 5348     		ldr	r0, .L66+36
 721 00ca FFF7FEFF 		bl	UnityPrint
 722              	.LVL66:
 217:External/Unity-2.5.2/extras/fixture/src/unity_fixture.c ****             UNITY_PRINT_EOL();
 723              		.loc 1 217 13 view .LVU143
 724 00ce 0D20     		movs	r0, #13
 725 00d0 FFF7FEFF 		bl	unity_config_put_c
 726              	.LVL67:
 727              		.loc 1 217 13 discriminator 1 view .LVU144
 728 00d4 0A20     		movs	r0, #10
 729 00d6 FFF7FEFF 		bl	unity_config_put_c
 730              	.LVL68:
 218:External/Unity-2.5.2/extras/fixture/src/unity_fixture.c ****             UNITY_PRINT_EOL();
 731              		.loc 1 218 13 view .LVU145
 732 00da 0D20     		movs	r0, #13
 733 00dc FFF7FEFF 		bl	unity_config_put_c
 734              	.LVL69:
 735              		.loc 1 218 13 discriminator 1 view .LVU146
 736 00e0 0A20     		movs	r0, #10
 737 00e2 FFF7FEFF 		bl	unity_config_put_c
 738              	.LVL70:
 219:External/Unity-2.5.2/extras/fixture/src/unity_fixture.c **** #ifdef UNITY_CUSTOM_HELP_MSG
 220:External/Unity-2.5.2/extras/fixture/src/unity_fixture.c ****             /* User-defined help message, e.g. to point to project-specific documentation */
 221:External/Unity-2.5.2/extras/fixture/src/unity_fixture.c ****             UnityPrint(UNITY_CUSTOM_HELP_MSG);
 222:External/Unity-2.5.2/extras/fixture/src/unity_fixture.c ****             UNITY_PRINT_EOL();
 223:External/Unity-2.5.2/extras/fixture/src/unity_fixture.c **** #else
 224:External/Unity-2.5.2/extras/fixture/src/unity_fixture.c ****             /* Default help suffix if a custom one is not defined */
 225:External/Unity-2.5.2/extras/fixture/src/unity_fixture.c ****             UnityPrint("More information about Unity: https://www.throwtheswitch.org/unity");
 739              		.loc 1 225 13 view .LVU147
 740 00e6 4D48     		ldr	r0, .L66+40
ARM GAS  /tmp/ccFmZdH8.s 			page 19


 741 00e8 FFF7FEFF 		bl	UnityPrint
 742              	.LVL71:
 226:External/Unity-2.5.2/extras/fixture/src/unity_fixture.c ****             UNITY_PRINT_EOL();
 743              		.loc 1 226 13 view .LVU148
 744 00ec 0D20     		movs	r0, #13
 745 00ee FFF7FEFF 		bl	unity_config_put_c
 746              	.LVL72:
 747              		.loc 1 226 13 discriminator 1 view .LVU149
 748 00f2 0A20     		movs	r0, #10
 749 00f4 FFF7FEFF 		bl	unity_config_put_c
 750              	.LVL73:
 227:External/Unity-2.5.2/extras/fixture/src/unity_fixture.c **** #endif
 228:External/Unity-2.5.2/extras/fixture/src/unity_fixture.c ****             return 1;  /* Exit without running the tests */
 751              		.loc 1 228 13 view .LVU150
 752              		.loc 1 228 20 is_stmt 0 view .LVU151
 753 00f8 0120     		movs	r0, #1
 754              	.LVL74:
 755              	.L44:
 229:External/Unity-2.5.2/extras/fixture/src/unity_fixture.c ****         }
 230:External/Unity-2.5.2/extras/fixture/src/unity_fixture.c ****         else if (strcmp(argv[i], "-v") == 0)
 231:External/Unity-2.5.2/extras/fixture/src/unity_fixture.c ****         {
 232:External/Unity-2.5.2/extras/fixture/src/unity_fixture.c ****             UnityFixture.Verbose = 1;
 233:External/Unity-2.5.2/extras/fixture/src/unity_fixture.c ****             i++;
 234:External/Unity-2.5.2/extras/fixture/src/unity_fixture.c ****         }
 235:External/Unity-2.5.2/extras/fixture/src/unity_fixture.c ****         else if (strcmp(argv[i], "-s") == 0)
 236:External/Unity-2.5.2/extras/fixture/src/unity_fixture.c ****         {
 237:External/Unity-2.5.2/extras/fixture/src/unity_fixture.c ****             UnityFixture.Silent = 1;
 238:External/Unity-2.5.2/extras/fixture/src/unity_fixture.c ****             i++;
 239:External/Unity-2.5.2/extras/fixture/src/unity_fixture.c ****         }
 240:External/Unity-2.5.2/extras/fixture/src/unity_fixture.c ****         else if (strcmp(argv[i], "-g") == 0)
 241:External/Unity-2.5.2/extras/fixture/src/unity_fixture.c ****         {
 242:External/Unity-2.5.2/extras/fixture/src/unity_fixture.c ****             i++;
 243:External/Unity-2.5.2/extras/fixture/src/unity_fixture.c ****             if (i >= argc)
 244:External/Unity-2.5.2/extras/fixture/src/unity_fixture.c ****                 return 1;
 245:External/Unity-2.5.2/extras/fixture/src/unity_fixture.c ****             UnityFixture.GroupFilter = argv[i];
 246:External/Unity-2.5.2/extras/fixture/src/unity_fixture.c ****             i++;
 247:External/Unity-2.5.2/extras/fixture/src/unity_fixture.c ****         }
 248:External/Unity-2.5.2/extras/fixture/src/unity_fixture.c ****         else if (strcmp(argv[i], "-n") == 0)
 249:External/Unity-2.5.2/extras/fixture/src/unity_fixture.c ****         {
 250:External/Unity-2.5.2/extras/fixture/src/unity_fixture.c ****             i++;
 251:External/Unity-2.5.2/extras/fixture/src/unity_fixture.c ****             if (i >= argc)
 252:External/Unity-2.5.2/extras/fixture/src/unity_fixture.c ****                 return 1;
 253:External/Unity-2.5.2/extras/fixture/src/unity_fixture.c ****             UnityFixture.NameFilter = argv[i];
 254:External/Unity-2.5.2/extras/fixture/src/unity_fixture.c ****             i++;
 255:External/Unity-2.5.2/extras/fixture/src/unity_fixture.c ****         }
 256:External/Unity-2.5.2/extras/fixture/src/unity_fixture.c ****         else if (strcmp(argv[i], "-r") == 0)
 257:External/Unity-2.5.2/extras/fixture/src/unity_fixture.c ****         {
 258:External/Unity-2.5.2/extras/fixture/src/unity_fixture.c ****             UnityFixture.RepeatCount = 2;
 259:External/Unity-2.5.2/extras/fixture/src/unity_fixture.c ****             i++;
 260:External/Unity-2.5.2/extras/fixture/src/unity_fixture.c ****             if (i < argc)
 261:External/Unity-2.5.2/extras/fixture/src/unity_fixture.c ****             {
 262:External/Unity-2.5.2/extras/fixture/src/unity_fixture.c ****                 if (*(argv[i]) >= '0' && *(argv[i]) <= '9')
 263:External/Unity-2.5.2/extras/fixture/src/unity_fixture.c ****                 {
 264:External/Unity-2.5.2/extras/fixture/src/unity_fixture.c ****                     unsigned int digit = 0;
 265:External/Unity-2.5.2/extras/fixture/src/unity_fixture.c ****                     UnityFixture.RepeatCount = 0;
 266:External/Unity-2.5.2/extras/fixture/src/unity_fixture.c ****                     while (argv[i][digit] >= '0' && argv[i][digit] <= '9')
 267:External/Unity-2.5.2/extras/fixture/src/unity_fixture.c ****                     {
ARM GAS  /tmp/ccFmZdH8.s 			page 20


 268:External/Unity-2.5.2/extras/fixture/src/unity_fixture.c ****                         UnityFixture.RepeatCount *= 10;
 269:External/Unity-2.5.2/extras/fixture/src/unity_fixture.c ****                         UnityFixture.RepeatCount += (unsigned int)argv[i][digit++] - '0';
 270:External/Unity-2.5.2/extras/fixture/src/unity_fixture.c ****                     }
 271:External/Unity-2.5.2/extras/fixture/src/unity_fixture.c ****                     i++;
 272:External/Unity-2.5.2/extras/fixture/src/unity_fixture.c ****                 }
 273:External/Unity-2.5.2/extras/fixture/src/unity_fixture.c ****             }
 274:External/Unity-2.5.2/extras/fixture/src/unity_fixture.c ****         }
 275:External/Unity-2.5.2/extras/fixture/src/unity_fixture.c ****         else
 276:External/Unity-2.5.2/extras/fixture/src/unity_fixture.c ****         {
 277:External/Unity-2.5.2/extras/fixture/src/unity_fixture.c ****             /* ignore unknown parameter */
 278:External/Unity-2.5.2/extras/fixture/src/unity_fixture.c ****             i++;
 279:External/Unity-2.5.2/extras/fixture/src/unity_fixture.c ****         }
 280:External/Unity-2.5.2/extras/fixture/src/unity_fixture.c ****     }
 281:External/Unity-2.5.2/extras/fixture/src/unity_fixture.c ****     return 0;
 282:External/Unity-2.5.2/extras/fixture/src/unity_fixture.c **** }
 756              		.loc 1 282 1 view .LVU152
 757 00fa F8BD     		pop	{r3, r4, r5, r6, r7, pc}
 758              	.LVL75:
 759              	.L49:
 235:External/Unity-2.5.2/extras/fixture/src/unity_fixture.c ****         {
 760              		.loc 1 235 14 is_stmt 1 view .LVU153
 235:External/Unity-2.5.2/extras/fixture/src/unity_fixture.c ****         {
 761              		.loc 1 235 18 is_stmt 0 view .LVU154
 762 00fc 4849     		ldr	r1, .L66+44
 763 00fe 2046     		mov	r0, r4
 764 0100 FFF7FEFF 		bl	strcmp
 765              	.LVL76:
 235:External/Unity-2.5.2/extras/fixture/src/unity_fixture.c ****         {
 766              		.loc 1 235 17 discriminator 1 view .LVU155
 767 0104 00BB     		cbnz	r0, .L51
 237:External/Unity-2.5.2/extras/fixture/src/unity_fixture.c ****             i++;
 768              		.loc 1 237 13 is_stmt 1 view .LVU156
 237:External/Unity-2.5.2/extras/fixture/src/unity_fixture.c ****             i++;
 769              		.loc 1 237 33 is_stmt 0 view .LVU157
 770 0106 3B4B     		ldr	r3, .L66
 771 0108 0122     		movs	r2, #1
 772 010a 5A60     		str	r2, [r3, #4]
 238:External/Unity-2.5.2/extras/fixture/src/unity_fixture.c ****         }
 773              		.loc 1 238 13 is_stmt 1 view .LVU158
 238:External/Unity-2.5.2/extras/fixture/src/unity_fixture.c ****         }
 774              		.loc 1 238 14 is_stmt 0 view .LVU159
 775 010c 1544     		add	r5, r5, r2
 776              	.LVL77:
 777              	.L46:
 193:External/Unity-2.5.2/extras/fixture/src/unity_fixture.c ****     {
 778              		.loc 1 193 19 is_stmt 1 discriminator 1 view .LVU160
 779 010e B542     		cmp	r5, r6
 780 0110 68DA     		bge	.L64
 195:External/Unity-2.5.2/extras/fixture/src/unity_fixture.c ****         {
 781              		.loc 1 195 9 view .LVU161
 195:External/Unity-2.5.2/extras/fixture/src/unity_fixture.c ****         {
 782              		.loc 1 195 13 is_stmt 0 view .LVU162
 783 0112 57F82540 		ldr	r4, [r7, r5, lsl #2]
 784 0116 4349     		ldr	r1, .L66+48
 785 0118 2046     		mov	r0, r4
 786 011a FFF7FEFF 		bl	strcmp
 787              	.LVL78:
ARM GAS  /tmp/ccFmZdH8.s 			page 21


 195:External/Unity-2.5.2/extras/fixture/src/unity_fixture.c ****         {
 788              		.loc 1 195 12 discriminator 1 view .LVU163
 789 011e 0028     		cmp	r0, #0
 790 0120 3FF47EAF 		beq	.L47
 195:External/Unity-2.5.2/extras/fixture/src/unity_fixture.c ****         {
 791              		.loc 1 195 43 discriminator 1 view .LVU164
 792 0124 4049     		ldr	r1, .L66+52
 793 0126 2046     		mov	r0, r4
 794 0128 FFF7FEFF 		bl	strcmp
 795              	.LVL79:
 195:External/Unity-2.5.2/extras/fixture/src/unity_fixture.c ****         {
 796              		.loc 1 195 40 discriminator 1 view .LVU165
 797 012c 0028     		cmp	r0, #0
 798 012e 3FF477AF 		beq	.L47
 230:External/Unity-2.5.2/extras/fixture/src/unity_fixture.c ****         {
 799              		.loc 1 230 14 is_stmt 1 view .LVU166
 230:External/Unity-2.5.2/extras/fixture/src/unity_fixture.c ****         {
 800              		.loc 1 230 18 is_stmt 0 view .LVU167
 801 0132 3E49     		ldr	r1, .L66+56
 802 0134 2046     		mov	r0, r4
 803 0136 FFF7FEFF 		bl	strcmp
 804              	.LVL80:
 230:External/Unity-2.5.2/extras/fixture/src/unity_fixture.c ****         {
 805              		.loc 1 230 17 discriminator 1 view .LVU168
 806 013a 0028     		cmp	r0, #0
 807 013c DED1     		bne	.L49
 232:External/Unity-2.5.2/extras/fixture/src/unity_fixture.c ****             i++;
 808              		.loc 1 232 13 is_stmt 1 view .LVU169
 232:External/Unity-2.5.2/extras/fixture/src/unity_fixture.c ****             i++;
 809              		.loc 1 232 34 is_stmt 0 view .LVU170
 810 013e 2D4B     		ldr	r3, .L66
 811 0140 0122     		movs	r2, #1
 812 0142 1A60     		str	r2, [r3]
 233:External/Unity-2.5.2/extras/fixture/src/unity_fixture.c ****         }
 813              		.loc 1 233 13 is_stmt 1 view .LVU171
 233:External/Unity-2.5.2/extras/fixture/src/unity_fixture.c ****         }
 814              		.loc 1 233 14 is_stmt 0 view .LVU172
 815 0144 1544     		add	r5, r5, r2
 816              	.LVL81:
 233:External/Unity-2.5.2/extras/fixture/src/unity_fixture.c ****         }
 817              		.loc 1 233 14 view .LVU173
 818 0146 E2E7     		b	.L46
 819              	.L51:
 240:External/Unity-2.5.2/extras/fixture/src/unity_fixture.c ****         {
 820              		.loc 1 240 14 is_stmt 1 view .LVU174
 240:External/Unity-2.5.2/extras/fixture/src/unity_fixture.c ****         {
 821              		.loc 1 240 18 is_stmt 0 view .LVU175
 822 0148 3949     		ldr	r1, .L66+60
 823 014a 2046     		mov	r0, r4
 824 014c FFF7FEFF 		bl	strcmp
 825              	.LVL82:
 240:External/Unity-2.5.2/extras/fixture/src/unity_fixture.c ****         {
 826              		.loc 1 240 17 discriminator 1 view .LVU176
 827 0150 40B9     		cbnz	r0, .L52
 242:External/Unity-2.5.2/extras/fixture/src/unity_fixture.c ****             if (i >= argc)
 828              		.loc 1 242 13 is_stmt 1 view .LVU177
 242:External/Unity-2.5.2/extras/fixture/src/unity_fixture.c ****             if (i >= argc)
ARM GAS  /tmp/ccFmZdH8.s 			page 22


 829              		.loc 1 242 14 is_stmt 0 view .LVU178
 830 0152 6B1C     		adds	r3, r5, #1
 831              	.LVL83:
 243:External/Unity-2.5.2/extras/fixture/src/unity_fixture.c ****                 return 1;
 832              		.loc 1 243 13 is_stmt 1 view .LVU179
 243:External/Unity-2.5.2/extras/fixture/src/unity_fixture.c ****                 return 1;
 833              		.loc 1 243 16 is_stmt 0 view .LVU180
 834 0154 9E42     		cmp	r6, r3
 835 0156 49DD     		ble	.L59
 245:External/Unity-2.5.2/extras/fixture/src/unity_fixture.c ****             i++;
 836              		.loc 1 245 13 is_stmt 1 view .LVU181
 245:External/Unity-2.5.2/extras/fixture/src/unity_fixture.c ****             i++;
 837              		.loc 1 245 44 is_stmt 0 view .LVU182
 838 0158 57F82320 		ldr	r2, [r7, r3, lsl #2]
 245:External/Unity-2.5.2/extras/fixture/src/unity_fixture.c ****             i++;
 839              		.loc 1 245 38 view .LVU183
 840 015c 254B     		ldr	r3, .L66
 841              	.LVL84:
 245:External/Unity-2.5.2/extras/fixture/src/unity_fixture.c ****             i++;
 842              		.loc 1 245 38 view .LVU184
 843 015e 1A61     		str	r2, [r3, #16]
 246:External/Unity-2.5.2/extras/fixture/src/unity_fixture.c ****         }
 844              		.loc 1 246 13 is_stmt 1 view .LVU185
 246:External/Unity-2.5.2/extras/fixture/src/unity_fixture.c ****         }
 845              		.loc 1 246 14 is_stmt 0 view .LVU186
 846 0160 0235     		adds	r5, r5, #2
 847              	.LVL85:
 246:External/Unity-2.5.2/extras/fixture/src/unity_fixture.c ****         }
 848              		.loc 1 246 14 view .LVU187
 849 0162 D4E7     		b	.L46
 850              	.L52:
 248:External/Unity-2.5.2/extras/fixture/src/unity_fixture.c ****         {
 851              		.loc 1 248 14 is_stmt 1 view .LVU188
 248:External/Unity-2.5.2/extras/fixture/src/unity_fixture.c ****         {
 852              		.loc 1 248 18 is_stmt 0 view .LVU189
 853 0164 3349     		ldr	r1, .L66+64
 854 0166 2046     		mov	r0, r4
 855 0168 FFF7FEFF 		bl	strcmp
 856              	.LVL86:
 248:External/Unity-2.5.2/extras/fixture/src/unity_fixture.c ****         {
 857              		.loc 1 248 17 discriminator 1 view .LVU190
 858 016c 40B9     		cbnz	r0, .L53
 250:External/Unity-2.5.2/extras/fixture/src/unity_fixture.c ****             if (i >= argc)
 859              		.loc 1 250 13 is_stmt 1 view .LVU191
 250:External/Unity-2.5.2/extras/fixture/src/unity_fixture.c ****             if (i >= argc)
 860              		.loc 1 250 14 is_stmt 0 view .LVU192
 861 016e 6B1C     		adds	r3, r5, #1
 862              	.LVL87:
 251:External/Unity-2.5.2/extras/fixture/src/unity_fixture.c ****                 return 1;
 863              		.loc 1 251 13 is_stmt 1 view .LVU193
 251:External/Unity-2.5.2/extras/fixture/src/unity_fixture.c ****                 return 1;
 864              		.loc 1 251 16 is_stmt 0 view .LVU194
 865 0170 9E42     		cmp	r6, r3
 866 0172 3DDD     		ble	.L60
 253:External/Unity-2.5.2/extras/fixture/src/unity_fixture.c ****             i++;
 867              		.loc 1 253 13 is_stmt 1 view .LVU195
 253:External/Unity-2.5.2/extras/fixture/src/unity_fixture.c ****             i++;
ARM GAS  /tmp/ccFmZdH8.s 			page 23


 868              		.loc 1 253 43 is_stmt 0 view .LVU196
 869 0174 57F82320 		ldr	r2, [r7, r3, lsl #2]
 253:External/Unity-2.5.2/extras/fixture/src/unity_fixture.c ****             i++;
 870              		.loc 1 253 37 view .LVU197
 871 0178 1E4B     		ldr	r3, .L66
 872              	.LVL88:
 253:External/Unity-2.5.2/extras/fixture/src/unity_fixture.c ****             i++;
 873              		.loc 1 253 37 view .LVU198
 874 017a DA60     		str	r2, [r3, #12]
 254:External/Unity-2.5.2/extras/fixture/src/unity_fixture.c ****         }
 875              		.loc 1 254 13 is_stmt 1 view .LVU199
 254:External/Unity-2.5.2/extras/fixture/src/unity_fixture.c ****         }
 876              		.loc 1 254 14 is_stmt 0 view .LVU200
 877 017c 0235     		adds	r5, r5, #2
 878              	.LVL89:
 254:External/Unity-2.5.2/extras/fixture/src/unity_fixture.c ****         }
 879              		.loc 1 254 14 view .LVU201
 880 017e C6E7     		b	.L46
 881              	.L53:
 256:External/Unity-2.5.2/extras/fixture/src/unity_fixture.c ****         {
 882              		.loc 1 256 14 is_stmt 1 view .LVU202
 256:External/Unity-2.5.2/extras/fixture/src/unity_fixture.c ****         {
 883              		.loc 1 256 18 is_stmt 0 view .LVU203
 884 0180 2D49     		ldr	r1, .L66+68
 885 0182 2046     		mov	r0, r4
 886 0184 FFF7FEFF 		bl	strcmp
 887              	.LVL90:
 256:External/Unity-2.5.2/extras/fixture/src/unity_fixture.c ****         {
 888              		.loc 1 256 17 discriminator 1 view .LVU204
 889 0188 40BB     		cbnz	r0, .L54
 258:External/Unity-2.5.2/extras/fixture/src/unity_fixture.c ****             i++;
 890              		.loc 1 258 13 is_stmt 1 view .LVU205
 258:External/Unity-2.5.2/extras/fixture/src/unity_fixture.c ****             i++;
 891              		.loc 1 258 38 is_stmt 0 view .LVU206
 892 018a 1A4B     		ldr	r3, .L66
 893 018c 0222     		movs	r2, #2
 894 018e 9A60     		str	r2, [r3, #8]
 259:External/Unity-2.5.2/extras/fixture/src/unity_fixture.c ****             if (i < argc)
 895              		.loc 1 259 13 is_stmt 1 view .LVU207
 259:External/Unity-2.5.2/extras/fixture/src/unity_fixture.c ****             if (i < argc)
 896              		.loc 1 259 14 is_stmt 0 view .LVU208
 897 0190 6B1C     		adds	r3, r5, #1
 898              	.LVL91:
 260:External/Unity-2.5.2/extras/fixture/src/unity_fixture.c ****             {
 899              		.loc 1 260 13 is_stmt 1 view .LVU209
 260:External/Unity-2.5.2/extras/fixture/src/unity_fixture.c ****             {
 900              		.loc 1 260 16 is_stmt 0 view .LVU210
 901 0192 9E42     		cmp	r6, r3
 902 0194 24DD     		ble	.L61
 262:External/Unity-2.5.2/extras/fixture/src/unity_fixture.c ****                 {
 903              		.loc 1 262 17 is_stmt 1 view .LVU211
 262:External/Unity-2.5.2/extras/fixture/src/unity_fixture.c ****                 {
 904              		.loc 1 262 27 is_stmt 0 view .LVU212
 905 0196 07EB8304 		add	r4, r7, r3, lsl #2
 906 019a 57F82320 		ldr	r2, [r7, r3, lsl #2]
 262:External/Unity-2.5.2/extras/fixture/src/unity_fixture.c ****                 {
 907              		.loc 1 262 21 view .LVU213
ARM GAS  /tmp/ccFmZdH8.s 			page 24


 908 019e 1278     		ldrb	r2, [r2]	@ zero_extendqisi2
 262:External/Unity-2.5.2/extras/fixture/src/unity_fixture.c ****                 {
 909              		.loc 1 262 39 view .LVU214
 910 01a0 303A     		subs	r2, r2, #48
 911 01a2 D2B2     		uxtb	r2, r2
 262:External/Unity-2.5.2/extras/fixture/src/unity_fixture.c ****                 {
 912              		.loc 1 262 20 view .LVU215
 913 01a4 092A     		cmp	r2, #9
 914 01a6 01D9     		bls	.L65
 259:External/Unity-2.5.2/extras/fixture/src/unity_fixture.c ****             if (i < argc)
 915              		.loc 1 259 14 view .LVU216
 916 01a8 1D46     		mov	r5, r3
 917 01aa B0E7     		b	.L46
 918              	.L65:
 919              	.LBB2:
 264:External/Unity-2.5.2/extras/fixture/src/unity_fixture.c ****                     UnityFixture.RepeatCount = 0;
 920              		.loc 1 264 21 is_stmt 1 view .LVU217
 921              	.LVL92:
 265:External/Unity-2.5.2/extras/fixture/src/unity_fixture.c ****                     while (argv[i][digit] >= '0' && argv[i][digit] <= '9')
 922              		.loc 1 265 21 view .LVU218
 265:External/Unity-2.5.2/extras/fixture/src/unity_fixture.c ****                     while (argv[i][digit] >= '0' && argv[i][digit] <= '9')
 923              		.loc 1 265 46 is_stmt 0 view .LVU219
 924 01ac 0022     		movs	r2, #0
 925 01ae 114B     		ldr	r3, .L66
 926              	.LVL93:
 265:External/Unity-2.5.2/extras/fixture/src/unity_fixture.c ****                     while (argv[i][digit] >= '0' && argv[i][digit] <= '9')
 927              		.loc 1 265 46 view .LVU220
 928 01b0 9A60     		str	r2, [r3, #8]
 266:External/Unity-2.5.2/extras/fixture/src/unity_fixture.c ****                     {
 929              		.loc 1 266 21 is_stmt 1 view .LVU221
 266:External/Unity-2.5.2/extras/fixture/src/unity_fixture.c ****                     {
 930              		.loc 1 266 27 is_stmt 0 view .LVU222
 931 01b2 0BE0     		b	.L55
 932              	.LVL94:
 933              	.L56:
 268:External/Unity-2.5.2/extras/fixture/src/unity_fixture.c ****                         UnityFixture.RepeatCount += (unsigned int)argv[i][digit++] - '0';
 934              		.loc 1 268 25 is_stmt 1 view .LVU223
 268:External/Unity-2.5.2/extras/fixture/src/unity_fixture.c ****                         UnityFixture.RepeatCount += (unsigned int)argv[i][digit++] - '0';
 935              		.loc 1 268 37 is_stmt 0 view .LVU224
 936 01b4 0F49     		ldr	r1, .L66
 937 01b6 8B68     		ldr	r3, [r1, #8]
 268:External/Unity-2.5.2/extras/fixture/src/unity_fixture.c ****                         UnityFixture.RepeatCount += (unsigned int)argv[i][digit++] - '0';
 938              		.loc 1 268 50 view .LVU225
 939 01b8 03EB8303 		add	r3, r3, r3, lsl #2
 940 01bc 5B00     		lsls	r3, r3, #1
 941 01be 8B60     		str	r3, [r1, #8]
 269:External/Unity-2.5.2/extras/fixture/src/unity_fixture.c ****                     }
 942              		.loc 1 269 25 is_stmt 1 view .LVU226
 269:External/Unity-2.5.2/extras/fixture/src/unity_fixture.c ****                     }
 943              		.loc 1 269 71 is_stmt 0 view .LVU227
 944 01c0 2068     		ldr	r0, [r4]
 945              	.LVL95:
 269:External/Unity-2.5.2/extras/fixture/src/unity_fixture.c ****                     }
 946              		.loc 1 269 74 view .LVU228
 947 01c2 805C     		ldrb	r0, [r0, r2]	@ zero_extendqisi2
 269:External/Unity-2.5.2/extras/fixture/src/unity_fixture.c ****                     }
 948              		.loc 1 269 84 view .LVU229
ARM GAS  /tmp/ccFmZdH8.s 			page 25


 949 01c4 3038     		subs	r0, r0, #48
 269:External/Unity-2.5.2/extras/fixture/src/unity_fixture.c ****                     }
 950              		.loc 1 269 50 view .LVU230
 951 01c6 0344     		add	r3, r3, r0
 952 01c8 8B60     		str	r3, [r1, #8]
 269:External/Unity-2.5.2/extras/fixture/src/unity_fixture.c ****                     }
 953              		.loc 1 269 80 view .LVU231
 954 01ca 0132     		adds	r2, r2, #1
 955              	.LVL96:
 956              	.L55:
 266:External/Unity-2.5.2/extras/fixture/src/unity_fixture.c ****                     {
 957              		.loc 1 266 50 is_stmt 1 view .LVU232
 266:External/Unity-2.5.2/extras/fixture/src/unity_fixture.c ****                     {
 958              		.loc 1 266 32 is_stmt 0 view .LVU233
 959 01cc 2368     		ldr	r3, [r4]
 266:External/Unity-2.5.2/extras/fixture/src/unity_fixture.c ****                     {
 960              		.loc 1 266 35 view .LVU234
 961 01ce 9B5C     		ldrb	r3, [r3, r2]	@ zero_extendqisi2
 266:External/Unity-2.5.2/extras/fixture/src/unity_fixture.c ****                     {
 962              		.loc 1 266 50 view .LVU235
 963 01d0 303B     		subs	r3, r3, #48
 964 01d2 DBB2     		uxtb	r3, r3
 965 01d4 092B     		cmp	r3, #9
 966 01d6 EDD9     		bls	.L56
 271:External/Unity-2.5.2/extras/fixture/src/unity_fixture.c ****                 }
 967              		.loc 1 271 21 is_stmt 1 view .LVU236
 271:External/Unity-2.5.2/extras/fixture/src/unity_fixture.c ****                 }
 968              		.loc 1 271 22 is_stmt 0 view .LVU237
 969 01d8 0235     		adds	r5, r5, #2
 970              	.LVL97:
 271:External/Unity-2.5.2/extras/fixture/src/unity_fixture.c ****                 }
 971              		.loc 1 271 22 view .LVU238
 972 01da 98E7     		b	.L46
 973              	.LVL98:
 974              	.L54:
 271:External/Unity-2.5.2/extras/fixture/src/unity_fixture.c ****                 }
 975              		.loc 1 271 22 view .LVU239
 976              	.LBE2:
 278:External/Unity-2.5.2/extras/fixture/src/unity_fixture.c ****         }
 977              		.loc 1 278 13 is_stmt 1 view .LVU240
 278:External/Unity-2.5.2/extras/fixture/src/unity_fixture.c ****         }
 978              		.loc 1 278 14 is_stmt 0 view .LVU241
 979 01dc 0135     		adds	r5, r5, #1
 980              	.LVL99:
 278:External/Unity-2.5.2/extras/fixture/src/unity_fixture.c ****         }
 981              		.loc 1 278 14 view .LVU242
 982 01de 96E7     		b	.L46
 983              	.LVL100:
 984              	.L61:
 259:External/Unity-2.5.2/extras/fixture/src/unity_fixture.c ****             if (i < argc)
 985              		.loc 1 259 14 view .LVU243
 986 01e0 1D46     		mov	r5, r3
 987 01e2 94E7     		b	.L46
 988              	.LVL101:
 989              	.L64:
 281:External/Unity-2.5.2/extras/fixture/src/unity_fixture.c **** }
 990              		.loc 1 281 12 view .LVU244
ARM GAS  /tmp/ccFmZdH8.s 			page 26


 991 01e4 0020     		movs	r0, #0
 992 01e6 88E7     		b	.L44
 993              	.LVL102:
 994              	.L58:
 191:External/Unity-2.5.2/extras/fixture/src/unity_fixture.c **** 
 995              		.loc 1 191 16 view .LVU245
 996 01e8 0020     		movs	r0, #0
 997              	.LVL103:
 191:External/Unity-2.5.2/extras/fixture/src/unity_fixture.c **** 
 998              		.loc 1 191 16 view .LVU246
 999 01ea 86E7     		b	.L44
 1000              	.LVL104:
 1001              	.L59:
 244:External/Unity-2.5.2/extras/fixture/src/unity_fixture.c ****             UnityFixture.GroupFilter = argv[i];
 1002              		.loc 1 244 24 view .LVU247
 1003 01ec 0120     		movs	r0, #1
 1004 01ee 84E7     		b	.L44
 1005              	.L60:
 252:External/Unity-2.5.2/extras/fixture/src/unity_fixture.c ****             UnityFixture.NameFilter = argv[i];
 1006              		.loc 1 252 24 view .LVU248
 1007 01f0 0120     		movs	r0, #1
 1008 01f2 82E7     		b	.L44
 1009              	.L67:
 1010              		.align	2
 1011              	.L66:
 1012 01f4 00000000 		.word	UnityFixture
 1013 01f8 0C000000 		.word	.LC5
 1014 01fc 2C000000 		.word	.LC6
 1015 0200 5C000000 		.word	.LC7
 1016 0204 6C000000 		.word	.LC8
 1017 0208 B4000000 		.word	.LC9
 1018 020c FC000000 		.word	.LC10
 1019 0210 40010000 		.word	.LC11
 1020 0214 84010000 		.word	.LC12
 1021 0218 B8010000 		.word	.LC13
 1022 021c E0010000 		.word	.LC14
 1023 0220 28020000 		.word	.LC16
 1024 0224 00000000 		.word	.LC3
 1025 0228 04000000 		.word	.LC4
 1026 022c 24020000 		.word	.LC15
 1027 0230 2C020000 		.word	.LC17
 1028 0234 30020000 		.word	.LC18
 1029 0238 34020000 		.word	.LC19
 1030              		.cfi_endproc
 1031              	.LFE12:
 1033              		.section	.text.UnityMain,"ax",%progbits
 1034              		.align	1
 1035              		.global	UnityMain
 1036              		.syntax unified
 1037              		.thumb
 1038              		.thumb_func
 1040              	UnityMain:
 1041              	.LVL105:
 1042              	.LFB3:
  31:External/Unity-2.5.2/extras/fixture/src/unity_fixture.c ****     int result = UnityGetCommandLineOptions(argc, argv);
 1043              		.loc 1 31 1 is_stmt 1 view -0
 1044              		.cfi_startproc
ARM GAS  /tmp/ccFmZdH8.s 			page 27


 1045              		@ args = 0, pretend = 0, frame = 0
 1046              		@ frame_needed = 0, uses_anonymous_args = 0
  31:External/Unity-2.5.2/extras/fixture/src/unity_fixture.c ****     int result = UnityGetCommandLineOptions(argc, argv);
 1047              		.loc 1 31 1 is_stmt 0 view .LVU250
 1048 0000 70B5     		push	{r4, r5, r6, lr}
 1049              	.LCFI8:
 1050              		.cfi_def_cfa_offset 16
 1051              		.cfi_offset 4, -16
 1052              		.cfi_offset 5, -12
 1053              		.cfi_offset 6, -8
 1054              		.cfi_offset 14, -4
 1055 0002 0D46     		mov	r5, r1
 1056 0004 1646     		mov	r6, r2
  32:External/Unity-2.5.2/extras/fixture/src/unity_fixture.c ****     unsigned int r;
 1057              		.loc 1 32 5 is_stmt 1 view .LVU251
  32:External/Unity-2.5.2/extras/fixture/src/unity_fixture.c ****     unsigned int r;
 1058              		.loc 1 32 18 is_stmt 0 view .LVU252
 1059 0006 FFF7FEFF 		bl	UnityGetCommandLineOptions
 1060              	.LVL106:
  33:External/Unity-2.5.2/extras/fixture/src/unity_fixture.c ****     if (result != 0)
 1061              		.loc 1 33 5 is_stmt 1 view .LVU253
  34:External/Unity-2.5.2/extras/fixture/src/unity_fixture.c ****         return result;
 1062              		.loc 1 34 5 view .LVU254
  34:External/Unity-2.5.2/extras/fixture/src/unity_fixture.c ****         return result;
 1063              		.loc 1 34 8 is_stmt 0 view .LVU255
 1064 000a E0B9     		cbnz	r0, .L68
  37:External/Unity-2.5.2/extras/fixture/src/unity_fixture.c ****     {
 1065              		.loc 1 37 12 view .LVU256
 1066 000c 0024     		movs	r4, #0
 1067 000e 05E0     		b	.L70
 1068              	.LVL107:
 1069              	.L71:
  42:External/Unity-2.5.2/extras/fixture/src/unity_fixture.c ****         UnityEnd();
 1070              		.loc 1 42 36 is_stmt 1 discriminator 3 view .LVU257
 1071 0010 0A20     		movs	r0, #10
 1072 0012 FFF7FEFF 		bl	unity_config_put_c
 1073              	.LVL108:
  43:External/Unity-2.5.2/extras/fixture/src/unity_fixture.c ****     }
 1074              		.loc 1 43 9 view .LVU258
 1075 0016 FFF7FEFF 		bl	UnityEnd
 1076              	.LVL109:
  37:External/Unity-2.5.2/extras/fixture/src/unity_fixture.c ****     {
 1077              		.loc 1 37 48 discriminator 2 view .LVU259
 1078 001a 0134     		adds	r4, r4, #1
 1079              	.LVL110:
 1080              	.L70:
  37:External/Unity-2.5.2/extras/fixture/src/unity_fixture.c ****     {
 1081              		.loc 1 37 19 discriminator 1 view .LVU260
  37:External/Unity-2.5.2/extras/fixture/src/unity_fixture.c ****     {
 1082              		.loc 1 37 33 is_stmt 0 discriminator 1 view .LVU261
 1083 001c 0A4B     		ldr	r3, .L75
 1084 001e 9B68     		ldr	r3, [r3, #8]
  37:External/Unity-2.5.2/extras/fixture/src/unity_fixture.c ****     {
 1085              		.loc 1 37 19 discriminator 1 view .LVU262
 1086 0020 A342     		cmp	r3, r4
 1087 0022 0ED9     		bls	.L74
  39:External/Unity-2.5.2/extras/fixture/src/unity_fixture.c ****         announceTestRun(r);
ARM GAS  /tmp/ccFmZdH8.s 			page 28


 1088              		.loc 1 39 9 is_stmt 1 view .LVU263
 1089 0024 2868     		ldr	r0, [r5]
 1090 0026 FFF7FEFF 		bl	UnityBegin
 1091              	.LVL111:
  40:External/Unity-2.5.2/extras/fixture/src/unity_fixture.c ****         runAllTests();
 1092              		.loc 1 40 9 view .LVU264
 1093 002a 2046     		mov	r0, r4
 1094 002c FFF7FEFF 		bl	announceTestRun
 1095              	.LVL112:
  41:External/Unity-2.5.2/extras/fixture/src/unity_fixture.c ****         if (!UnityFixture.Verbose) UNITY_PRINT_EOL();
 1096              		.loc 1 41 9 view .LVU265
 1097 0030 B047     		blx	r6
 1098              	.LVL113:
  42:External/Unity-2.5.2/extras/fixture/src/unity_fixture.c ****         UnityEnd();
 1099              		.loc 1 42 9 view .LVU266
  42:External/Unity-2.5.2/extras/fixture/src/unity_fixture.c ****         UnityEnd();
 1100              		.loc 1 42 26 is_stmt 0 view .LVU267
 1101 0032 054B     		ldr	r3, .L75
 1102 0034 1B68     		ldr	r3, [r3]
  42:External/Unity-2.5.2/extras/fixture/src/unity_fixture.c ****         UnityEnd();
 1103              		.loc 1 42 12 view .LVU268
 1104 0036 002B     		cmp	r3, #0
 1105 0038 EAD1     		bne	.L71
  42:External/Unity-2.5.2/extras/fixture/src/unity_fixture.c ****         UnityEnd();
 1106              		.loc 1 42 36 is_stmt 1 discriminator 1 view .LVU269
 1107 003a 0D20     		movs	r0, #13
 1108 003c FFF7FEFF 		bl	unity_config_put_c
 1109              	.LVL114:
 1110 0040 E6E7     		b	.L71
 1111              	.L74:
  46:External/Unity-2.5.2/extras/fixture/src/unity_fixture.c **** }
 1112              		.loc 1 46 5 view .LVU270
  46:External/Unity-2.5.2/extras/fixture/src/unity_fixture.c **** }
 1113              		.loc 1 46 22 is_stmt 0 view .LVU271
 1114 0042 024B     		ldr	r3, .L75+4
 1115 0044 9869     		ldr	r0, [r3, #24]
 1116              	.LVL115:
 1117              	.L68:
  47:External/Unity-2.5.2/extras/fixture/src/unity_fixture.c **** 
 1118              		.loc 1 47 1 view .LVU272
 1119 0046 70BD     		pop	{r4, r5, r6, pc}
 1120              	.LVL116:
 1121              	.L76:
  47:External/Unity-2.5.2/extras/fixture/src/unity_fixture.c **** 
 1122              		.loc 1 47 1 view .LVU273
 1123              		.align	2
 1124              	.L75:
 1125 0048 00000000 		.word	UnityFixture
 1126 004c 00000000 		.word	Unity
 1127              		.cfi_endproc
 1128              	.LFE3:
 1130              		.section	.rodata.UnityConcludeFixtureTest.str1.4,"aMS",%progbits,1
 1131              		.align	2
 1132              	.LC20:
 1133 0000 2000     		.ascii	" \000"
 1134              		.section	.text.UnityConcludeFixtureTest,"ax",%progbits
 1135              		.align	1
ARM GAS  /tmp/ccFmZdH8.s 			page 29


 1136              		.global	UnityConcludeFixtureTest
 1137              		.syntax unified
 1138              		.thumb
 1139              		.thumb_func
 1141              	UnityConcludeFixtureTest:
 1142              	.LFB13:
 283:External/Unity-2.5.2/extras/fixture/src/unity_fixture.c **** 
 284:External/Unity-2.5.2/extras/fixture/src/unity_fixture.c **** void UnityConcludeFixtureTest(void)
 285:External/Unity-2.5.2/extras/fixture/src/unity_fixture.c **** {
 1143              		.loc 1 285 1 is_stmt 1 view -0
 1144              		.cfi_startproc
 1145              		@ args = 0, pretend = 0, frame = 0
 1146              		@ frame_needed = 0, uses_anonymous_args = 0
 1147 0000 08B5     		push	{r3, lr}
 1148              	.LCFI9:
 1149              		.cfi_def_cfa_offset 8
 1150              		.cfi_offset 3, -8
 1151              		.cfi_offset 14, -4
 286:External/Unity-2.5.2/extras/fixture/src/unity_fixture.c ****     if (Unity.CurrentTestIgnored)
 1152              		.loc 1 286 5 view .LVU275
 1153              		.loc 1 286 14 is_stmt 0 view .LVU276
 1154 0002 184B     		ldr	r3, .L83
 1155 0004 5B6A     		ldr	r3, [r3, #36]
 1156              		.loc 1 286 8 view .LVU277
 1157 0006 93B9     		cbnz	r3, .L82
 287:External/Unity-2.5.2/extras/fixture/src/unity_fixture.c ****     {
 288:External/Unity-2.5.2/extras/fixture/src/unity_fixture.c ****         Unity.TestIgnores++;
 289:External/Unity-2.5.2/extras/fixture/src/unity_fixture.c ****         UNITY_PRINT_EOL();
 290:External/Unity-2.5.2/extras/fixture/src/unity_fixture.c ****     }
 291:External/Unity-2.5.2/extras/fixture/src/unity_fixture.c ****     else if (!Unity.CurrentTestFailed)
 1158              		.loc 1 291 10 is_stmt 1 view .LVU278
 1159              		.loc 1 291 20 is_stmt 0 view .LVU279
 1160 0008 164B     		ldr	r3, .L83
 1161 000a 1B6A     		ldr	r3, [r3, #32]
 1162              		.loc 1 291 13 view .LVU280
 1163 000c F3B9     		cbnz	r3, .L80
 292:External/Unity-2.5.2/extras/fixture/src/unity_fixture.c ****     {
 293:External/Unity-2.5.2/extras/fixture/src/unity_fixture.c ****         if (UnityFixture.Verbose)
 1164              		.loc 1 293 9 is_stmt 1 view .LVU281
 1165              		.loc 1 293 25 is_stmt 0 view .LVU282
 1166 000e 164B     		ldr	r3, .L83+4
 1167 0010 1B68     		ldr	r3, [r3]
 1168              		.loc 1 293 12 view .LVU283
 1169 0012 B3B1     		cbz	r3, .L79
 294:External/Unity-2.5.2/extras/fixture/src/unity_fixture.c ****         {
 295:External/Unity-2.5.2/extras/fixture/src/unity_fixture.c ****             UnityPrint(" ");
 1170              		.loc 1 295 13 is_stmt 1 view .LVU284
 1171 0014 1548     		ldr	r0, .L83+8
 1172 0016 FFF7FEFF 		bl	UnityPrint
 1173              	.LVL117:
 296:External/Unity-2.5.2/extras/fixture/src/unity_fixture.c ****             UnityPrint(UnityStrPass);
 1174              		.loc 1 296 13 view .LVU285
 1175 001a 1548     		ldr	r0, .L83+12
 1176 001c FFF7FEFF 		bl	UnityPrint
 1177              	.LVL118:
 297:External/Unity-2.5.2/extras/fixture/src/unity_fixture.c ****             UNITY_EXEC_TIME_STOP();
 1178              		.loc 1 297 13 view .LVU286
ARM GAS  /tmp/ccFmZdH8.s 			page 30


 1179              		.loc 1 297 13 view .LVU287
 1180              		.loc 1 297 13 view .LVU288
 298:External/Unity-2.5.2/extras/fixture/src/unity_fixture.c ****             UNITY_PRINT_EXEC_TIME();
 1181              		.loc 1 298 13 view .LVU289
 1182              		.loc 1 298 13 view .LVU290
 1183              		.loc 1 298 13 view .LVU291
 299:External/Unity-2.5.2/extras/fixture/src/unity_fixture.c ****             UNITY_PRINT_EOL();
 1184              		.loc 1 299 13 view .LVU292
 1185 0020 0D20     		movs	r0, #13
 1186 0022 FFF7FEFF 		bl	unity_config_put_c
 1187              	.LVL119:
 1188              		.loc 1 299 13 discriminator 1 view .LVU293
 1189 0026 0A20     		movs	r0, #10
 1190 0028 FFF7FEFF 		bl	unity_config_put_c
 1191              	.LVL120:
 1192 002c 09E0     		b	.L79
 1193              	.L82:
 288:External/Unity-2.5.2/extras/fixture/src/unity_fixture.c ****         UNITY_PRINT_EOL();
 1194              		.loc 1 288 9 view .LVU294
 288:External/Unity-2.5.2/extras/fixture/src/unity_fixture.c ****         UNITY_PRINT_EOL();
 1195              		.loc 1 288 14 is_stmt 0 view .LVU295
 1196 002e 0D4A     		ldr	r2, .L83
 1197 0030 D369     		ldr	r3, [r2, #28]
 288:External/Unity-2.5.2/extras/fixture/src/unity_fixture.c ****         UNITY_PRINT_EOL();
 1198              		.loc 1 288 26 view .LVU296
 1199 0032 0133     		adds	r3, r3, #1
 1200 0034 D361     		str	r3, [r2, #28]
 289:External/Unity-2.5.2/extras/fixture/src/unity_fixture.c ****     }
 1201              		.loc 1 289 9 is_stmt 1 view .LVU297
 1202 0036 0D20     		movs	r0, #13
 1203 0038 FFF7FEFF 		bl	unity_config_put_c
 1204              	.LVL121:
 289:External/Unity-2.5.2/extras/fixture/src/unity_fixture.c ****     }
 1205              		.loc 1 289 9 discriminator 1 view .LVU298
 1206 003c 0A20     		movs	r0, #10
 1207 003e FFF7FEFF 		bl	unity_config_put_c
 1208              	.LVL122:
 1209              	.L79:
 300:External/Unity-2.5.2/extras/fixture/src/unity_fixture.c ****         }
 301:External/Unity-2.5.2/extras/fixture/src/unity_fixture.c ****     }
 302:External/Unity-2.5.2/extras/fixture/src/unity_fixture.c ****     else /* Unity.CurrentTestFailed */
 303:External/Unity-2.5.2/extras/fixture/src/unity_fixture.c ****     {
 304:External/Unity-2.5.2/extras/fixture/src/unity_fixture.c ****         Unity.TestFailures++;
 305:External/Unity-2.5.2/extras/fixture/src/unity_fixture.c ****         UNITY_PRINT_EOL();
 306:External/Unity-2.5.2/extras/fixture/src/unity_fixture.c ****     }
 307:External/Unity-2.5.2/extras/fixture/src/unity_fixture.c **** 
 308:External/Unity-2.5.2/extras/fixture/src/unity_fixture.c ****     Unity.CurrentTestFailed = 0;
 1210              		.loc 1 308 5 view .LVU299
 1211              		.loc 1 308 29 is_stmt 0 view .LVU300
 1212 0042 084B     		ldr	r3, .L83
 1213 0044 0022     		movs	r2, #0
 1214 0046 1A62     		str	r2, [r3, #32]
 309:External/Unity-2.5.2/extras/fixture/src/unity_fixture.c ****     Unity.CurrentTestIgnored = 0;
 1215              		.loc 1 309 5 is_stmt 1 view .LVU301
 1216              		.loc 1 309 30 is_stmt 0 view .LVU302
 1217 0048 5A62     		str	r2, [r3, #36]
 310:External/Unity-2.5.2/extras/fixture/src/unity_fixture.c **** }
ARM GAS  /tmp/ccFmZdH8.s 			page 31


 1218              		.loc 1 310 1 view .LVU303
 1219 004a 08BD     		pop	{r3, pc}
 1220              	.L80:
 304:External/Unity-2.5.2/extras/fixture/src/unity_fixture.c ****         UNITY_PRINT_EOL();
 1221              		.loc 1 304 9 is_stmt 1 view .LVU304
 304:External/Unity-2.5.2/extras/fixture/src/unity_fixture.c ****         UNITY_PRINT_EOL();
 1222              		.loc 1 304 14 is_stmt 0 view .LVU305
 1223 004c 054A     		ldr	r2, .L83
 1224 004e 9369     		ldr	r3, [r2, #24]
 304:External/Unity-2.5.2/extras/fixture/src/unity_fixture.c ****         UNITY_PRINT_EOL();
 1225              		.loc 1 304 27 view .LVU306
 1226 0050 0133     		adds	r3, r3, #1
 1227 0052 9361     		str	r3, [r2, #24]
 305:External/Unity-2.5.2/extras/fixture/src/unity_fixture.c ****     }
 1228              		.loc 1 305 9 is_stmt 1 view .LVU307
 1229 0054 0D20     		movs	r0, #13
 1230 0056 FFF7FEFF 		bl	unity_config_put_c
 1231              	.LVL123:
 305:External/Unity-2.5.2/extras/fixture/src/unity_fixture.c ****     }
 1232              		.loc 1 305 9 discriminator 1 view .LVU308
 1233 005a 0A20     		movs	r0, #10
 1234 005c FFF7FEFF 		bl	unity_config_put_c
 1235              	.LVL124:
 1236 0060 EFE7     		b	.L79
 1237              	.L84:
 1238 0062 00BF     		.align	2
 1239              	.L83:
 1240 0064 00000000 		.word	Unity
 1241 0068 00000000 		.word	UnityFixture
 1242 006c 00000000 		.word	.LC20
 1243 0070 00000000 		.word	UnityStrPass
 1244              		.cfi_endproc
 1245              	.LFE13:
 1247              		.section	.text.UnityTestRunner,"ax",%progbits
 1248              		.align	1
 1249              		.global	UnityTestRunner
 1250              		.syntax unified
 1251              		.thumb
 1252              		.thumb_func
 1254              	UnityTestRunner:
 1255              	.LVL125:
 1256              	.LFB7:
  74:External/Unity-2.5.2/extras/fixture/src/unity_fixture.c ****     if (testSelected(name) && groupSelected(group))
 1257              		.loc 1 74 1 view -0
 1258              		.cfi_startproc
 1259              		@ args = 16, pretend = 0, frame = 16
 1260              		@ frame_needed = 0, uses_anonymous_args = 0
  74:External/Unity-2.5.2/extras/fixture/src/unity_fixture.c ****     if (testSelected(name) && groupSelected(group))
 1261              		.loc 1 74 1 is_stmt 0 view .LVU310
 1262 0000 10B5     		push	{r4, lr}
 1263              	.LCFI10:
 1264              		.cfi_def_cfa_offset 8
 1265              		.cfi_offset 4, -8
 1266              		.cfi_offset 14, -4
 1267 0002 84B0     		sub	sp, sp, #16
 1268              	.LCFI11:
 1269              		.cfi_def_cfa_offset 24
ARM GAS  /tmp/ccFmZdH8.s 			page 32


 1270 0004 0190     		str	r0, [sp, #4]
 1271 0006 0291     		str	r1, [sp, #8]
 1272 0008 0392     		str	r2, [sp, #12]
 1273 000a 1C46     		mov	r4, r3
  75:External/Unity-2.5.2/extras/fixture/src/unity_fixture.c ****     {
 1274              		.loc 1 75 5 is_stmt 1 view .LVU311
  75:External/Unity-2.5.2/extras/fixture/src/unity_fixture.c ****     {
 1275              		.loc 1 75 9 is_stmt 0 view .LVU312
 1276 000c 0798     		ldr	r0, [sp, #28]
 1277              	.LVL126:
  75:External/Unity-2.5.2/extras/fixture/src/unity_fixture.c ****     {
 1278              		.loc 1 75 9 view .LVU313
 1279 000e FFF7FEFF 		bl	testSelected
 1280              	.LVL127:
  75:External/Unity-2.5.2/extras/fixture/src/unity_fixture.c ****     {
 1281              		.loc 1 75 8 discriminator 1 view .LVU314
 1282 0012 0028     		cmp	r0, #0
 1283 0014 2AD0     		beq	.L85
  75:External/Unity-2.5.2/extras/fixture/src/unity_fixture.c ****     {
 1284              		.loc 1 75 31 discriminator 2 view .LVU315
 1285 0016 0698     		ldr	r0, [sp, #24]
 1286 0018 FFF7FEFF 		bl	groupSelected
 1287              	.LVL128:
  75:External/Unity-2.5.2/extras/fixture/src/unity_fixture.c ****     {
 1288              		.loc 1 75 28 discriminator 3 view .LVU316
 1289 001c 30B3     		cbz	r0, .L85
  77:External/Unity-2.5.2/extras/fixture/src/unity_fixture.c ****         Unity.CurrentTestName = printableName;
 1290              		.loc 1 77 9 is_stmt 1 view .LVU317
  77:External/Unity-2.5.2/extras/fixture/src/unity_fixture.c ****         Unity.CurrentTestName = printableName;
 1291              		.loc 1 77 24 is_stmt 0 view .LVU318
 1292 001e 1B4B     		ldr	r3, .L97
 1293 0020 089A     		ldr	r2, [sp, #32]
 1294 0022 1A60     		str	r2, [r3]
  78:External/Unity-2.5.2/extras/fixture/src/unity_fixture.c ****         Unity.CurrentTestLineNumber = line;
 1295              		.loc 1 78 9 is_stmt 1 view .LVU319
  78:External/Unity-2.5.2/extras/fixture/src/unity_fixture.c ****         Unity.CurrentTestLineNumber = line;
 1296              		.loc 1 78 31 is_stmt 0 view .LVU320
 1297 0024 5C60     		str	r4, [r3, #4]
  79:External/Unity-2.5.2/extras/fixture/src/unity_fixture.c ****         if (UnityFixture.Verbose)
 1298              		.loc 1 79 9 is_stmt 1 view .LVU321
  79:External/Unity-2.5.2/extras/fixture/src/unity_fixture.c ****         if (UnityFixture.Verbose)
 1299              		.loc 1 79 37 is_stmt 0 view .LVU322
 1300 0026 099A     		ldr	r2, [sp, #36]
 1301 0028 1A61     		str	r2, [r3, #16]
  80:External/Unity-2.5.2/extras/fixture/src/unity_fixture.c ****         {
 1302              		.loc 1 80 9 is_stmt 1 view .LVU323
  80:External/Unity-2.5.2/extras/fixture/src/unity_fixture.c ****         {
 1303              		.loc 1 80 25 is_stmt 0 view .LVU324
 1304 002a 194B     		ldr	r3, .L97+4
 1305 002c 1B68     		ldr	r3, [r3]
  80:External/Unity-2.5.2/extras/fixture/src/unity_fixture.c ****         {
 1306              		.loc 1 80 12 view .LVU325
 1307 002e FBB9     		cbnz	r3, .L94
  87:External/Unity-2.5.2/extras/fixture/src/unity_fixture.c ****         {
 1308              		.loc 1 87 14 is_stmt 1 view .LVU326
  87:External/Unity-2.5.2/extras/fixture/src/unity_fixture.c ****         {
 1309              		.loc 1 87 30 is_stmt 0 view .LVU327
ARM GAS  /tmp/ccFmZdH8.s 			page 33


 1310 0030 174B     		ldr	r3, .L97+4
 1311 0032 5B68     		ldr	r3, [r3, #4]
  87:External/Unity-2.5.2/extras/fixture/src/unity_fixture.c ****         {
 1312              		.loc 1 87 17 view .LVU328
 1313 0034 1BB3     		cbz	r3, .L95
 1314              	.L88:
  96:External/Unity-2.5.2/extras/fixture/src/unity_fixture.c ****         UnityPointer_Init();
 1315              		.loc 1 96 9 is_stmt 1 view .LVU329
  96:External/Unity-2.5.2/extras/fixture/src/unity_fixture.c ****         UnityPointer_Init();
 1316              		.loc 1 96 14 is_stmt 0 view .LVU330
 1317 0036 154C     		ldr	r4, .L97
 1318              	.LVL129:
  96:External/Unity-2.5.2/extras/fixture/src/unity_fixture.c ****         UnityPointer_Init();
 1319              		.loc 1 96 14 view .LVU331
 1320 0038 6369     		ldr	r3, [r4, #20]
  96:External/Unity-2.5.2/extras/fixture/src/unity_fixture.c ****         UnityPointer_Init();
 1321              		.loc 1 96 28 view .LVU332
 1322 003a 0133     		adds	r3, r3, #1
 1323 003c 6361     		str	r3, [r4, #20]
  97:External/Unity-2.5.2/extras/fixture/src/unity_fixture.c **** 
 1324              		.loc 1 97 9 is_stmt 1 view .LVU333
 1325 003e FFF7FEFF 		bl	UnityPointer_Init
 1326              	.LVL130:
  99:External/Unity-2.5.2/extras/fixture/src/unity_fixture.c **** 
 1327              		.loc 1 99 9 view .LVU334
  99:External/Unity-2.5.2/extras/fixture/src/unity_fixture.c **** 
 1328              		.loc 1 99 9 view .LVU335
  99:External/Unity-2.5.2/extras/fixture/src/unity_fixture.c **** 
 1329              		.loc 1 99 9 view .LVU336
 101:External/Unity-2.5.2/extras/fixture/src/unity_fixture.c ****         {
 1330              		.loc 1 101 9 view .LVU337
 101:External/Unity-2.5.2/extras/fixture/src/unity_fixture.c ****         {
 1331              		.loc 1 101 13 is_stmt 0 view .LVU338
 1332 0042 04F12800 		add	r0, r4, #40
 1333 0046 FFF7FEFF 		bl	setjmp
 1334              	.LVL131:
 101:External/Unity-2.5.2/extras/fixture/src/unity_fixture.c ****         {
 1335              		.loc 1 101 12 discriminator 1 view .LVU339
 1336 004a 18B9     		cbnz	r0, .L90
 103:External/Unity-2.5.2/extras/fixture/src/unity_fixture.c ****             testBody();
 1337              		.loc 1 103 13 is_stmt 1 view .LVU340
 1338 004c 019B     		ldr	r3, [sp, #4]
 1339 004e 9847     		blx	r3
 1340              	.LVL132:
 104:External/Unity-2.5.2/extras/fixture/src/unity_fixture.c ****         }
 1341              		.loc 1 104 13 view .LVU341
 1342 0050 029B     		ldr	r3, [sp, #8]
 1343 0052 9847     		blx	r3
 1344              	.LVL133:
 1345              	.L90:
 106:External/Unity-2.5.2/extras/fixture/src/unity_fixture.c ****         {
 1346              		.loc 1 106 13 is_stmt 0 view .LVU342
 1347 0054 0F48     		ldr	r0, .L97+8
 1348 0056 FFF7FEFF 		bl	setjmp
 1349              	.LVL134:
 106:External/Unity-2.5.2/extras/fixture/src/unity_fixture.c ****         {
 1350              		.loc 1 106 12 discriminator 1 view .LVU343
ARM GAS  /tmp/ccFmZdH8.s 			page 34


 1351 005a 08B9     		cbnz	r0, .L91
 108:External/Unity-2.5.2/extras/fixture/src/unity_fixture.c ****         }
 1352              		.loc 1 108 13 is_stmt 1 view .LVU344
 1353 005c 039B     		ldr	r3, [sp, #12]
 1354 005e 9847     		blx	r3
 1355              	.LVL135:
 1356              	.L91:
 110:External/Unity-2.5.2/extras/fixture/src/unity_fixture.c ****         {
 1357              		.loc 1 110 13 is_stmt 0 view .LVU345
 1358 0060 0C48     		ldr	r0, .L97+8
 1359 0062 FFF7FEFF 		bl	setjmp
 1360              	.LVL136:
 110:External/Unity-2.5.2/extras/fixture/src/unity_fixture.c ****         {
 1361              		.loc 1 110 12 discriminator 1 view .LVU346
 1362 0066 70B1     		cbz	r0, .L96
 1363              	.L92:
 114:External/Unity-2.5.2/extras/fixture/src/unity_fixture.c ****     }
 1364              		.loc 1 114 9 is_stmt 1 view .LVU347
 1365 0068 FFF7FEFF 		bl	UnityConcludeFixtureTest
 1366              	.LVL137:
 1367              	.L85:
 116:External/Unity-2.5.2/extras/fixture/src/unity_fixture.c **** 
 1368              		.loc 1 116 1 is_stmt 0 view .LVU348
 1369 006c 04B0     		add	sp, sp, #16
 1370              	.LCFI12:
 1371              		.cfi_remember_state
 1372              		.cfi_def_cfa_offset 8
 1373              		@ sp needed
 1374 006e 10BD     		pop	{r4, pc}
 1375              	.LVL138:
 1376              	.L94:
 1377              	.LCFI13:
 1378              		.cfi_restore_state
  82:External/Unity-2.5.2/extras/fixture/src/unity_fixture.c ****         #ifndef UNITY_REPEAT_TEST_NAME
 1379              		.loc 1 82 13 is_stmt 1 view .LVU349
 1380 0070 2046     		mov	r0, r4
 1381 0072 FFF7FEFF 		bl	UnityPrint
 1382              	.LVL139:
  84:External/Unity-2.5.2/extras/fixture/src/unity_fixture.c ****         #endif
 1383              		.loc 1 84 13 view .LVU350
  84:External/Unity-2.5.2/extras/fixture/src/unity_fixture.c ****         #endif
 1384              		.loc 1 84 35 is_stmt 0 view .LVU351
 1385 0076 054B     		ldr	r3, .L97
 1386 0078 0022     		movs	r2, #0
 1387 007a 5A60     		str	r2, [r3, #4]
 1388 007c DBE7     		b	.L88
 1389              	.L95:
  93:External/Unity-2.5.2/extras/fixture/src/unity_fixture.c ****         }
 1390              		.loc 1 93 13 is_stmt 1 view .LVU352
 1391 007e 2E20     		movs	r0, #46
 1392 0080 FFF7FEFF 		bl	unity_config_put_c
 1393              	.LVL140:
 1394 0084 D7E7     		b	.L88
 1395              	.LVL141:
 1396              	.L96:
 112:External/Unity-2.5.2/extras/fixture/src/unity_fixture.c ****         }
 1397              		.loc 1 112 13 view .LVU353
ARM GAS  /tmp/ccFmZdH8.s 			page 35


 1398 0086 FFF7FEFF 		bl	UnityPointer_UndoAllSets
 1399              	.LVL142:
 1400 008a EDE7     		b	.L92
 1401              	.L98:
 1402              		.align	2
 1403              	.L97:
 1404 008c 00000000 		.word	Unity
 1405 0090 00000000 		.word	UnityFixture
 1406 0094 28000000 		.word	Unity+40
 1407              		.cfi_endproc
 1408              	.LFE7:
 1410              		.section	.bss.pointer_index,"aw",%nobits
 1411              		.align	2
 1414              	pointer_index:
 1415 0000 00000000 		.space	4
 1416              		.section	.bss.pointer_store,"aw",%nobits
 1417              		.align	2
 1420              	pointer_store:
 1421 0000 00000000 		.space	40
 1421      00000000 
 1421      00000000 
 1421      00000000 
 1421      00000000 
 1422              		.global	UnityFixture
 1423              		.section	.bss.UnityFixture,"aw",%nobits
 1424              		.align	2
 1427              	UnityFixture:
 1428 0000 00000000 		.space	20
 1428      00000000 
 1428      00000000 
 1428      00000000 
 1428      00000000 
 1429              		.text
 1430              	.Letext0:
 1431              		.file 2 "/usr/local/src/arm-gnu-toolchain-13.2/arm-none-eabi/include/machine/_default_types.h"
 1432              		.file 3 "/usr/local/src/arm-gnu-toolchain-13.2/arm-none-eabi/include/sys/_stdint.h"
 1433              		.file 4 "/usr/local/src/arm-gnu-toolchain-13.2/arm-none-eabi/include/machine/setjmp.h"
 1434              		.file 5 "External/Unity-2.5.2/src/unity_internals.h"
 1435              		.file 6 "External/Unity-2.5.2/extras/fixture/src/unity_fixture_internals.h"
 1436              		.file 7 "/usr/local/src/arm-gnu-toolchain-13.2/arm-none-eabi/include/string.h"
 1437              		.file 8 "/usr/local/src/arm-gnu-toolchain-13.2/arm-none-eabi/include/setjmp.h"
 1438              		.file 9 "Tests/unity_config.h"
ARM GAS  /tmp/ccFmZdH8.s 			page 36

